ARM GAS  C:\Users\Nathan\AppData\Local\Temp\cckURzj9.s 			page 1


   1              		.cpu cortex-m0plus
   2              		.arch armv6s-m
   3              		.fpu softvfp
   4              		.eabi_attribute 20, 1
   5              		.eabi_attribute 21, 1
   6              		.eabi_attribute 23, 3
   7              		.eabi_attribute 24, 1
   8              		.eabi_attribute 25, 1
   9              		.eabi_attribute 26, 1
  10              		.eabi_attribute 30, 1
  11              		.eabi_attribute 34, 0
  12              		.eabi_attribute 18, 4
  13              		.file	"epd_api.c"
  14              		.text
  15              	.Ltext0:
  16              		.cfi_sections	.debug_frame
  17              		.section	.text.EPD_TurnOnDisplay,"ax",%progbits
  18              		.align	1
  19              		.global	EPD_TurnOnDisplay
  20              		.syntax unified
  21              		.code	16
  22              		.thumb_func
  24              	EPD_TurnOnDisplay:
  25              	.LFB180:
  26              		.file 1 "App/EPD/epd_api.c"
   1:App/EPD/epd_api.c **** #include "EPD/epd_api.h"
   2:App/EPD/epd_api.c **** #include "EPD/epd_driver.h"
   3:App/EPD/epd_api.c **** 
   4:App/EPD/epd_api.c **** void EPD_TurnOnDisplay(void)
   5:App/EPD/epd_api.c **** {
  27              		.loc 1 5 1 view -0
  28              		.cfi_startproc
  29              		@ args = 0, pretend = 0, frame = 0
  30              		@ frame_needed = 0, uses_anonymous_args = 0
  31 0000 10B5     		push	{r4, lr}
  32              	.LCFI0:
  33              		.cfi_def_cfa_offset 8
  34              		.cfi_offset 4, -8
  35              		.cfi_offset 14, -4
   6:App/EPD/epd_api.c ****     EPD_SendCommand(0x22);
  36              		.loc 1 6 5 view .LVU1
  37 0002 2220     		movs	r0, #34
  38 0004 FFF7FEFF 		bl	EPD_SendCommand
  39              	.LVL0:
   7:App/EPD/epd_api.c ****     EPD_SendData(0xF7);
  40              		.loc 1 7 5 view .LVU2
  41 0008 F720     		movs	r0, #247
  42 000a FFF7FEFF 		bl	EPD_SendData
  43              	.LVL1:
   8:App/EPD/epd_api.c ****     
   9:App/EPD/epd_api.c ****     EPD_SendCommand(0x20); // Activate Display Update Sequence
  44              		.loc 1 9 5 view .LVU3
  45 000e 2020     		movs	r0, #32
  46 0010 FFF7FEFF 		bl	EPD_SendCommand
  47              	.LVL2:
  10:App/EPD/epd_api.c ****     
  11:App/EPD/epd_api.c ****     EPD_WaitForBusy();
ARM GAS  C:\Users\Nathan\AppData\Local\Temp\cckURzj9.s 			page 2


  48              		.loc 1 11 5 view .LVU4
  49 0014 FFF7FEFF 		bl	EPD_WaitForBusy
  50              	.LVL3:
  12:App/EPD/epd_api.c **** }
  51              		.loc 1 12 1 is_stmt 0 view .LVU5
  52              		@ sp needed
  53 0018 10BD     		pop	{r4, pc}
  54              		.cfi_endproc
  55              	.LFE180:
  57              		.section	.text.EPD_SetWindow,"ax",%progbits
  58              		.align	1
  59              		.global	EPD_SetWindow
  60              		.syntax unified
  61              		.code	16
  62              		.thumb_func
  64              	EPD_SetWindow:
  65              	.LVL4:
  66              	.LFB181:
  13:App/EPD/epd_api.c **** 
  14:App/EPD/epd_api.c **** void EPD_SetWindow(uint16_t Xstart, uint16_t Ystart, uint16_t Xend, uint16_t Yend)
  15:App/EPD/epd_api.c **** {
  67              		.loc 1 15 1 is_stmt 1 view -0
  68              		.cfi_startproc
  69              		@ args = 0, pretend = 0, frame = 0
  70              		@ frame_needed = 0, uses_anonymous_args = 0
  71              		.loc 1 15 1 is_stmt 0 view .LVU7
  72 0000 F8B5     		push	{r3, r4, r5, r6, r7, lr}
  73              	.LCFI1:
  74              		.cfi_def_cfa_offset 24
  75              		.cfi_offset 3, -24
  76              		.cfi_offset 4, -20
  77              		.cfi_offset 5, -16
  78              		.cfi_offset 6, -12
  79              		.cfi_offset 7, -8
  80              		.cfi_offset 14, -4
  81 0002 0700     		movs	r7, r0
  82 0004 0D00     		movs	r5, r1
  83 0006 1400     		movs	r4, r2
  84 0008 1E00     		movs	r6, r3
  16:App/EPD/epd_api.c ****     EPD_SendCommand(0x44); // SET_RAM_X_ADDRESS_START_END_POSITION
  85              		.loc 1 16 5 is_stmt 1 view .LVU8
  86 000a 4420     		movs	r0, #68
  87              	.LVL5:
  88              		.loc 1 16 5 is_stmt 0 view .LVU9
  89 000c FFF7FEFF 		bl	EPD_SendCommand
  90              	.LVL6:
  17:App/EPD/epd_api.c ****     EPD_SendData((Xstart>>3) & 0xFF);
  91              		.loc 1 17 5 is_stmt 1 view .LVU10
  92 0010 F808     		lsrs	r0, r7, #3
  93 0012 C0B2     		uxtb	r0, r0
  94 0014 FFF7FEFF 		bl	EPD_SendData
  95              	.LVL7:
  18:App/EPD/epd_api.c ****     EPD_SendData((Xend>>3) & 0xFF);
  96              		.loc 1 18 5 view .LVU11
  97 0018 E008     		lsrs	r0, r4, #3
  98 001a C0B2     		uxtb	r0, r0
  99 001c FFF7FEFF 		bl	EPD_SendData
ARM GAS  C:\Users\Nathan\AppData\Local\Temp\cckURzj9.s 			page 3


 100              	.LVL8:
  19:App/EPD/epd_api.c ****     
  20:App/EPD/epd_api.c ****     EPD_SendCommand(0x45); // SET_RAM_Y_ADDRESS_START_END_POSITION
 101              		.loc 1 20 5 view .LVU12
 102 0020 4520     		movs	r0, #69
 103 0022 FFF7FEFF 		bl	EPD_SendCommand
 104              	.LVL9:
  21:App/EPD/epd_api.c ****     EPD_SendData(Ystart & 0xFF);
 105              		.loc 1 21 5 view .LVU13
 106 0026 E8B2     		uxtb	r0, r5
 107 0028 FFF7FEFF 		bl	EPD_SendData
 108              	.LVL10:
  22:App/EPD/epd_api.c ****     EPD_SendData((Ystart >> 8) & 0xFF);
 109              		.loc 1 22 5 view .LVU14
 110 002c 280A     		lsrs	r0, r5, #8
 111 002e FFF7FEFF 		bl	EPD_SendData
 112              	.LVL11:
  23:App/EPD/epd_api.c ****     EPD_SendData(Yend & 0xFF);
 113              		.loc 1 23 5 view .LVU15
 114 0032 F0B2     		uxtb	r0, r6
 115 0034 FFF7FEFF 		bl	EPD_SendData
 116              	.LVL12:
  24:App/EPD/epd_api.c ****     EPD_SendData((Yend >> 8) & 0xFF);
 117              		.loc 1 24 5 view .LVU16
 118 0038 300A     		lsrs	r0, r6, #8
 119 003a FFF7FEFF 		bl	EPD_SendData
 120              	.LVL13:
  25:App/EPD/epd_api.c **** }
 121              		.loc 1 25 1 is_stmt 0 view .LVU17
 122              		@ sp needed
 123 003e F8BD     		pop	{r3, r4, r5, r6, r7, pc}
 124              		.cfi_endproc
 125              	.LFE181:
 127              		.section	.text.EPD_SetCursor,"ax",%progbits
 128              		.align	1
 129              		.global	EPD_SetCursor
 130              		.syntax unified
 131              		.code	16
 132              		.thumb_func
 134              	EPD_SetCursor:
 135              	.LVL14:
 136              	.LFB182:
  26:App/EPD/epd_api.c **** 
  27:App/EPD/epd_api.c **** void EPD_SetCursor(uint16_t Xstart, uint16_t Ystart)
  28:App/EPD/epd_api.c **** {
 137              		.loc 1 28 1 is_stmt 1 view -0
 138              		.cfi_startproc
 139              		@ args = 0, pretend = 0, frame = 0
 140              		@ frame_needed = 0, uses_anonymous_args = 0
 141              		.loc 1 28 1 is_stmt 0 view .LVU19
 142 0000 70B5     		push	{r4, r5, r6, lr}
 143              	.LCFI2:
 144              		.cfi_def_cfa_offset 16
 145              		.cfi_offset 4, -16
 146              		.cfi_offset 5, -12
 147              		.cfi_offset 6, -8
 148              		.cfi_offset 14, -4
ARM GAS  C:\Users\Nathan\AppData\Local\Temp\cckURzj9.s 			page 4


 149 0002 0500     		movs	r5, r0
 150 0004 0C00     		movs	r4, r1
  29:App/EPD/epd_api.c ****     EPD_SendCommand(0x4E); // SET_RAM_X_ADDRESS_COUNTER
 151              		.loc 1 29 5 is_stmt 1 view .LVU20
 152 0006 4E20     		movs	r0, #78
 153              	.LVL15:
 154              		.loc 1 29 5 is_stmt 0 view .LVU21
 155 0008 FFF7FEFF 		bl	EPD_SendCommand
 156              	.LVL16:
  30:App/EPD/epd_api.c ****     EPD_SendData(Xstart & 0xFF);
 157              		.loc 1 30 5 is_stmt 1 view .LVU22
 158 000c E8B2     		uxtb	r0, r5
 159 000e FFF7FEFF 		bl	EPD_SendData
 160              	.LVL17:
  31:App/EPD/epd_api.c **** 
  32:App/EPD/epd_api.c ****     EPD_SendCommand(0x4F); // SET_RAM_Y_ADDRESS_COUNTER
 161              		.loc 1 32 5 view .LVU23
 162 0012 4F20     		movs	r0, #79
 163 0014 FFF7FEFF 		bl	EPD_SendCommand
 164              	.LVL18:
  33:App/EPD/epd_api.c ****     EPD_SendData(Ystart & 0xFF);
 165              		.loc 1 33 5 view .LVU24
 166 0018 E0B2     		uxtb	r0, r4
 167 001a FFF7FEFF 		bl	EPD_SendData
 168              	.LVL19:
  34:App/EPD/epd_api.c ****     EPD_SendData((Ystart >> 8) & 0xFF);
 169              		.loc 1 34 5 view .LVU25
 170 001e 200A     		lsrs	r0, r4, #8
 171 0020 FFF7FEFF 		bl	EPD_SendData
 172              	.LVL20:
  35:App/EPD/epd_api.c **** }
 173              		.loc 1 35 1 is_stmt 0 view .LVU26
 174              		@ sp needed
 175 0024 70BD     		pop	{r4, r5, r6, pc}
 176              		.cfi_endproc
 177              	.LFE182:
 179              		.section	.text.EPD_Init,"ax",%progbits
 180              		.align	1
 181              		.global	EPD_Init
 182              		.syntax unified
 183              		.code	16
 184              		.thumb_func
 186              	EPD_Init:
 187              	.LFB183:
  36:App/EPD/epd_api.c **** 
  37:App/EPD/epd_api.c **** void EPD_Init(void)
  38:App/EPD/epd_api.c **** {
 188              		.loc 1 38 1 is_stmt 1 view -0
 189              		.cfi_startproc
 190              		@ args = 0, pretend = 0, frame = 0
 191              		@ frame_needed = 0, uses_anonymous_args = 0
 192 0000 10B5     		push	{r4, lr}
 193              	.LCFI3:
 194              		.cfi_def_cfa_offset 8
 195              		.cfi_offset 4, -8
 196              		.cfi_offset 14, -4
  39:App/EPD/epd_api.c ****     EPD_Reset();
ARM GAS  C:\Users\Nathan\AppData\Local\Temp\cckURzj9.s 			page 5


 197              		.loc 1 39 5 view .LVU28
 198 0002 FFF7FEFF 		bl	EPD_Reset
 199              	.LVL21:
  40:App/EPD/epd_api.c **** 
  41:App/EPD/epd_api.c ****     EPD_WaitForBusy();   
 200              		.loc 1 41 5 view .LVU29
 201 0006 FFF7FEFF 		bl	EPD_WaitForBusy
 202              	.LVL22:
  42:App/EPD/epd_api.c ****     EPD_SendCommand(0x12);  //SW RESET
 203              		.loc 1 42 5 view .LVU30
 204 000a 1220     		movs	r0, #18
 205 000c FFF7FEFF 		bl	EPD_SendCommand
 206              	.LVL23:
  43:App/EPD/epd_api.c ****     EPD_WaitForBusy();   
 207              		.loc 1 43 5 view .LVU31
 208 0010 FFF7FEFF 		bl	EPD_WaitForBusy
 209              	.LVL24:
  44:App/EPD/epd_api.c **** 
  45:App/EPD/epd_api.c ****     EPD_SendCommand(0x01);  //Driver output control
 210              		.loc 1 45 5 view .LVU32
 211 0014 0120     		movs	r0, #1
 212 0016 FFF7FEFF 		bl	EPD_SendCommand
 213              	.LVL25:
  46:App/EPD/epd_api.c ****     EPD_SendData(0xF9);
 214              		.loc 1 46 5 view .LVU33
 215 001a F920     		movs	r0, #249
 216 001c FFF7FEFF 		bl	EPD_SendData
 217              	.LVL26:
  47:App/EPD/epd_api.c ****     EPD_SendData(0x00);
 218              		.loc 1 47 5 view .LVU34
 219 0020 0020     		movs	r0, #0
 220 0022 FFF7FEFF 		bl	EPD_SendData
 221              	.LVL27:
  48:App/EPD/epd_api.c ****     EPD_SendData(0x00);
 222              		.loc 1 48 5 view .LVU35
 223 0026 0020     		movs	r0, #0
 224 0028 FFF7FEFF 		bl	EPD_SendData
 225              	.LVL28:
  49:App/EPD/epd_api.c **** 
  50:App/EPD/epd_api.c ****     EPD_SendCommand(0x11);  //data entry mode
 226              		.loc 1 50 5 view .LVU36
 227 002c 1120     		movs	r0, #17
 228 002e FFF7FEFF 		bl	EPD_SendCommand
 229              	.LVL29:
  51:App/EPD/epd_api.c ****     EPD_SendData(0x03);     ///< Formerly 0x03
 230              		.loc 1 51 5 view .LVU37
 231 0032 0320     		movs	r0, #3
 232 0034 FFF7FEFF 		bl	EPD_SendData
 233              	.LVL30:
  52:App/EPD/epd_api.c ****     
  53:App/EPD/epd_api.c **** //    EPD_SendCommand(0x44); //set Ram-X address start/end position   
  54:App/EPD/epd_api.c **** //    EPD_SendData(0x00);
  55:App/EPD/epd_api.c **** //    EPD_SendData(0x0F);    //0x0F-->(15+1)*8=128
  56:App/EPD/epd_api.c **** 
  57:App/EPD/epd_api.c **** //    EPD_SendCommand(0x45); //set Ram-Y address start/end position          
  58:App/EPD/epd_api.c **** //    EPD_SendData(0x00);   //0xF9-->(249+1)=250
  59:App/EPD/epd_api.c **** //    EPD_SendData(0x00);
ARM GAS  C:\Users\Nathan\AppData\Local\Temp\cckURzj9.s 			page 6


  60:App/EPD/epd_api.c **** //    EPD_SendData(0xF9);
  61:App/EPD/epd_api.c **** //    EPD_SendData(0x00); 
  62:App/EPD/epd_api.c ****     
  63:App/EPD/epd_api.c ****     EPD_SetWindow(0, 0, EPD_WIDTH-1, EPD_HEIGHT-1);
 234              		.loc 1 63 5 view .LVU38
 235 0038 F923     		movs	r3, #249
 236 003a 7922     		movs	r2, #121
 237 003c 0021     		movs	r1, #0
 238 003e 0020     		movs	r0, #0
 239 0040 FFF7FEFF 		bl	EPD_SetWindow
 240              	.LVL31:
  64:App/EPD/epd_api.c ****     EPD_SetCursor(0, 0);
 241              		.loc 1 64 5 view .LVU39
 242 0044 0021     		movs	r1, #0
 243 0046 0020     		movs	r0, #0
 244 0048 FFF7FEFF 		bl	EPD_SetCursor
 245              	.LVL32:
  65:App/EPD/epd_api.c **** 
  66:App/EPD/epd_api.c ****     EPD_SendCommand(0x3C); //BorderWavefrom
 246              		.loc 1 66 5 view .LVU40
 247 004c 3C20     		movs	r0, #60
 248 004e FFF7FEFF 		bl	EPD_SendCommand
 249              	.LVL33:
  67:App/EPD/epd_api.c ****     EPD_SendData(0x05);    
 250              		.loc 1 67 5 view .LVU41
 251 0052 0520     		movs	r0, #5
 252 0054 FFF7FEFF 		bl	EPD_SendData
 253              	.LVL34:
  68:App/EPD/epd_api.c **** 
  69:App/EPD/epd_api.c **** //    EPD_SendCommand(0x18); //Read built-in temperature sensor
  70:App/EPD/epd_api.c **** //    EPD_SendData(0x80);    
  71:App/EPD/epd_api.c ****     
  72:App/EPD/epd_api.c ****     EPD_SendCommand(0x1A); //temperature sensor
 254              		.loc 1 72 5 view .LVU42
 255 0058 1A20     		movs	r0, #26
 256 005a FFF7FEFF 		bl	EPD_SendCommand
 257              	.LVL35:
  73:App/EPD/epd_api.c ****     EPD_SendData(0x0F);  
 258              		.loc 1 73 5 view .LVU43
 259 005e 0F20     		movs	r0, #15
 260 0060 FFF7FEFF 		bl	EPD_SendData
 261              	.LVL36:
  74:App/EPD/epd_api.c ****     EPD_SendData(0x00);  
 262              		.loc 1 74 5 view .LVU44
 263 0064 0020     		movs	r0, #0
 264 0066 FFF7FEFF 		bl	EPD_SendData
 265              	.LVL37:
  75:App/EPD/epd_api.c **** 
  76:App/EPD/epd_api.c ****     EPD_SendCommand(0x21); //  Display update control
 266              		.loc 1 76 5 view .LVU45
 267 006a 2120     		movs	r0, #33
 268 006c FFF7FEFF 		bl	EPD_SendCommand
 269              	.LVL38:
  77:App/EPD/epd_api.c ****     EPD_SendData(0x80);            ///< Formerly 0x80
 270              		.loc 1 77 5 view .LVU46
 271 0070 8020     		movs	r0, #128
 272 0072 FFF7FEFF 		bl	EPD_SendData
ARM GAS  C:\Users\Nathan\AppData\Local\Temp\cckURzj9.s 			page 7


 273              	.LVL39:
  78:App/EPD/epd_api.c ****     EPD_SendData(0x80);
 274              		.loc 1 78 5 view .LVU47
 275 0076 8020     		movs	r0, #128
 276 0078 FFF7FEFF 		bl	EPD_SendData
 277              	.LVL40:
  79:App/EPD/epd_api.c **** 
  80:App/EPD/epd_api.c **** //    EPD_SendCommand(0x4E);   // set RAM x address count to 0;
  81:App/EPD/epd_api.c **** //    EPD_SendData(0x00);
  82:App/EPD/epd_api.c **** //    EPD_SendCommand(0x4F);   // set RAM y address count to 0X199;    
  83:App/EPD/epd_api.c **** //    EPD_SendData(0x00);
  84:App/EPD/epd_api.c **** //    EPD_SendData(0x00);
  85:App/EPD/epd_api.c **** 
  86:App/EPD/epd_api.c ****     EPD_WaitForBusy();
 278              		.loc 1 86 5 view .LVU48
 279 007c FFF7FEFF 		bl	EPD_WaitForBusy
 280              	.LVL41:
  87:App/EPD/epd_api.c **** }
 281              		.loc 1 87 1 is_stmt 0 view .LVU49
 282              		@ sp needed
 283 0080 10BD     		pop	{r4, pc}
 284              		.cfi_endproc
 285              	.LFE183:
 287              		.section	.text.EPD_Clear,"ax",%progbits
 288              		.align	1
 289              		.global	EPD_Clear
 290              		.syntax unified
 291              		.code	16
 292              		.thumb_func
 294              	EPD_Clear:
 295              	.LFB184:
  88:App/EPD/epd_api.c **** 
  89:App/EPD/epd_api.c **** void EPD_Clear(void)
  90:App/EPD/epd_api.c **** {
 296              		.loc 1 90 1 is_stmt 1 view -0
 297              		.cfi_startproc
 298              		@ args = 0, pretend = 0, frame = 0
 299              		@ frame_needed = 0, uses_anonymous_args = 0
 300 0000 70B5     		push	{r4, r5, r6, lr}
 301              	.LCFI4:
 302              		.cfi_def_cfa_offset 16
 303              		.cfi_offset 4, -16
 304              		.cfi_offset 5, -12
 305              		.cfi_offset 6, -8
 306              		.cfi_offset 14, -4
  91:App/EPD/epd_api.c ****     uint16_t Width, Height;
 307              		.loc 1 91 5 view .LVU51
  92:App/EPD/epd_api.c ****     Width = (EPD_WIDTH % 8 == 0)? (EPD_WIDTH / 8 ): (EPD_WIDTH / 8 + 1);
 308              		.loc 1 92 5 view .LVU52
 309              	.LVL42:
  93:App/EPD/epd_api.c ****     Height = EPD_HEIGHT;
 310              		.loc 1 93 5 view .LVU53
  94:App/EPD/epd_api.c ****     
  95:App/EPD/epd_api.c ****     EPD_SendCommand(0x24);
 311              		.loc 1 95 5 view .LVU54
 312 0002 2420     		movs	r0, #36
 313 0004 FFF7FEFF 		bl	EPD_SendCommand
ARM GAS  C:\Users\Nathan\AppData\Local\Temp\cckURzj9.s 			page 8


 314              	.LVL43:
  96:App/EPD/epd_api.c ****     for (uint16_t j = 0; j < Height; j++) {
 315              		.loc 1 96 5 view .LVU55
 316              	.LBB2:
 317              		.loc 1 96 10 view .LVU56
 318              		.loc 1 96 19 is_stmt 0 view .LVU57
 319 0008 0025     		movs	r5, #0
 320              		.loc 1 96 5 view .LVU58
 321 000a 01E0     		b	.L6
 322              	.LVL44:
 323              	.L15:
 324              		.loc 1 96 38 is_stmt 1 discriminator 2 view .LVU59
 325              		.loc 1 96 39 is_stmt 0 discriminator 2 view .LVU60
 326 000c 0135     		adds	r5, r5, #1
 327              	.LVL45:
 328              		.loc 1 96 39 discriminator 2 view .LVU61
 329 000e ADB2     		uxth	r5, r5
 330              	.LVL46:
 331              	.L6:
 332              		.loc 1 96 26 is_stmt 1 discriminator 1 view .LVU62
 333              		.loc 1 96 5 is_stmt 0 discriminator 1 view .LVU63
 334 0010 F92D     		cmp	r5, #249
 335 0012 08D8     		bhi	.L14
 336              	.LBB3:
  97:App/EPD/epd_api.c ****         for (uint16_t i = 0; i < Width; i++) {
 337              		.loc 1 97 23 view .LVU64
 338 0014 0024     		movs	r4, #0
 339              	.L8:
 340              	.LVL47:
 341              		.loc 1 97 30 is_stmt 1 discriminator 1 view .LVU65
 342              		.loc 1 97 9 is_stmt 0 discriminator 1 view .LVU66
 343 0016 0F2C     		cmp	r4, #15
 344 0018 F8D8     		bhi	.L15
  98:App/EPD/epd_api.c ****             EPD_SendData(0XFF);
 345              		.loc 1 98 13 is_stmt 1 discriminator 3 view .LVU67
 346 001a FF20     		movs	r0, #255
 347 001c FFF7FEFF 		bl	EPD_SendData
 348              	.LVL48:
  97:App/EPD/epd_api.c ****         for (uint16_t i = 0; i < Width; i++) {
 349              		.loc 1 97 41 discriminator 3 view .LVU68
  97:App/EPD/epd_api.c ****         for (uint16_t i = 0; i < Width; i++) {
 350              		.loc 1 97 42 is_stmt 0 discriminator 3 view .LVU69
 351 0020 0134     		adds	r4, r4, #1
 352              	.LVL49:
  97:App/EPD/epd_api.c ****         for (uint16_t i = 0; i < Width; i++) {
 353              		.loc 1 97 42 discriminator 3 view .LVU70
 354 0022 A4B2     		uxth	r4, r4
 355              	.LVL50:
  97:App/EPD/epd_api.c ****         for (uint16_t i = 0; i < Width; i++) {
 356              		.loc 1 97 42 discriminator 3 view .LVU71
 357 0024 F7E7     		b	.L8
 358              	.LVL51:
 359              	.L14:
  97:App/EPD/epd_api.c ****         for (uint16_t i = 0; i < Width; i++) {
 360              		.loc 1 97 42 discriminator 3 view .LVU72
 361              	.LBE3:
 362              	.LBE2:
ARM GAS  C:\Users\Nathan\AppData\Local\Temp\cckURzj9.s 			page 9


  99:App/EPD/epd_api.c ****         }
 100:App/EPD/epd_api.c ****     }
 101:App/EPD/epd_api.c ****     EPD_SendCommand(0x26);
 363              		.loc 1 101 5 is_stmt 1 view .LVU73
 364 0026 2620     		movs	r0, #38
 365 0028 FFF7FEFF 		bl	EPD_SendCommand
 366              	.LVL52:
 102:App/EPD/epd_api.c ****     for (uint16_t j = 0; j < Height; j++) {
 367              		.loc 1 102 5 view .LVU74
 368              	.LBB4:
 369              		.loc 1 102 10 view .LVU75
 370              		.loc 1 102 19 is_stmt 0 view .LVU76
 371 002c 0025     		movs	r5, #0
 372              	.LVL53:
 373              		.loc 1 102 5 view .LVU77
 374 002e 08E0     		b	.L9
 375              	.LVL54:
 376              	.L10:
 377              	.LBB5:
 103:App/EPD/epd_api.c ****         for (uint16_t i = 0; i < Width; i++) {
 104:App/EPD/epd_api.c ****             EPD_SendData(0XFF);   ///< Formerly 0xFF
 378              		.loc 1 104 13 is_stmt 1 discriminator 3 view .LVU78
 379 0030 FF20     		movs	r0, #255
 380 0032 FFF7FEFF 		bl	EPD_SendData
 381              	.LVL55:
 103:App/EPD/epd_api.c ****         for (uint16_t i = 0; i < Width; i++) {
 382              		.loc 1 103 41 discriminator 3 view .LVU79
 103:App/EPD/epd_api.c ****         for (uint16_t i = 0; i < Width; i++) {
 383              		.loc 1 103 42 is_stmt 0 discriminator 3 view .LVU80
 384 0036 0134     		adds	r4, r4, #1
 385              	.LVL56:
 103:App/EPD/epd_api.c ****         for (uint16_t i = 0; i < Width; i++) {
 386              		.loc 1 103 42 discriminator 3 view .LVU81
 387 0038 A4B2     		uxth	r4, r4
 388              	.LVL57:
 389              	.L11:
 103:App/EPD/epd_api.c ****         for (uint16_t i = 0; i < Width; i++) {
 390              		.loc 1 103 30 is_stmt 1 discriminator 1 view .LVU82
 103:App/EPD/epd_api.c ****         for (uint16_t i = 0; i < Width; i++) {
 391              		.loc 1 103 9 is_stmt 0 discriminator 1 view .LVU83
 392 003a 0F2C     		cmp	r4, #15
 393 003c F8D9     		bls	.L10
 394              	.LBE5:
 102:App/EPD/epd_api.c ****     for (uint16_t j = 0; j < Height; j++) {
 395              		.loc 1 102 38 is_stmt 1 discriminator 2 view .LVU84
 102:App/EPD/epd_api.c ****     for (uint16_t j = 0; j < Height; j++) {
 396              		.loc 1 102 39 is_stmt 0 discriminator 2 view .LVU85
 397 003e 0135     		adds	r5, r5, #1
 398              	.LVL58:
 102:App/EPD/epd_api.c ****     for (uint16_t j = 0; j < Height; j++) {
 399              		.loc 1 102 39 discriminator 2 view .LVU86
 400 0040 ADB2     		uxth	r5, r5
 401              	.LVL59:
 402              	.L9:
 102:App/EPD/epd_api.c ****     for (uint16_t j = 0; j < Height; j++) {
 403              		.loc 1 102 26 is_stmt 1 discriminator 1 view .LVU87
 102:App/EPD/epd_api.c ****     for (uint16_t j = 0; j < Height; j++) {
ARM GAS  C:\Users\Nathan\AppData\Local\Temp\cckURzj9.s 			page 10


 404              		.loc 1 102 5 is_stmt 0 discriminator 1 view .LVU88
 405 0042 F92D     		cmp	r5, #249
 406 0044 01D8     		bhi	.L16
 407              	.LBB6:
 103:App/EPD/epd_api.c ****         for (uint16_t i = 0; i < Width; i++) {
 408              		.loc 1 103 23 view .LVU89
 409 0046 0024     		movs	r4, #0
 410 0048 F7E7     		b	.L11
 411              	.L16:
 412              	.LBE6:
 413              	.LBE4:
 105:App/EPD/epd_api.c ****         }
 106:App/EPD/epd_api.c ****     }
 107:App/EPD/epd_api.c ****     EPD_TurnOnDisplay();
 414              		.loc 1 107 5 is_stmt 1 view .LVU90
 415 004a FFF7FEFF 		bl	EPD_TurnOnDisplay
 416              	.LVL60:
 108:App/EPD/epd_api.c **** }
 417              		.loc 1 108 1 is_stmt 0 view .LVU91
 418              		@ sp needed
 419              	.LVL61:
 420              		.loc 1 108 1 view .LVU92
 421 004e 70BD     		pop	{r4, r5, r6, pc}
 422              		.cfi_endproc
 423              	.LFE184:
 425              		.section	.text.EPD_UpdateBlack,"ax",%progbits
 426              		.align	1
 427              		.global	EPD_UpdateBlack
 428              		.syntax unified
 429              		.code	16
 430              		.thumb_func
 432              	EPD_UpdateBlack:
 433              	.LVL62:
 434              	.LFB185:
 109:App/EPD/epd_api.c **** 
 110:App/EPD/epd_api.c **** void EPD_UpdateBlack(const uint8_t *blackImage)
 111:App/EPD/epd_api.c **** {
 435              		.loc 1 111 1 is_stmt 1 view -0
 436              		.cfi_startproc
 437              		@ args = 0, pretend = 0, frame = 0
 438              		@ frame_needed = 0, uses_anonymous_args = 0
 439              		.loc 1 111 1 is_stmt 0 view .LVU94
 440 0000 70B5     		push	{r4, r5, r6, lr}
 441              	.LCFI5:
 442              		.cfi_def_cfa_offset 16
 443              		.cfi_offset 4, -16
 444              		.cfi_offset 5, -12
 445              		.cfi_offset 6, -8
 446              		.cfi_offset 14, -4
 447 0002 0600     		movs	r6, r0
 112:App/EPD/epd_api.c ****     uint16_t Width, Height;
 448              		.loc 1 112 5 is_stmt 1 view .LVU95
 113:App/EPD/epd_api.c ****     Width = (EPD_WIDTH % 8 == 0)? (EPD_WIDTH / 8 ): (EPD_WIDTH / 8 + 1);
 449              		.loc 1 113 5 view .LVU96
 450              	.LVL63:
 114:App/EPD/epd_api.c ****     Height = EPD_HEIGHT;
 451              		.loc 1 114 5 view .LVU97
ARM GAS  C:\Users\Nathan\AppData\Local\Temp\cckURzj9.s 			page 11


 115:App/EPD/epd_api.c ****     
 116:App/EPD/epd_api.c ****     EPD_SendCommand(0x24);
 452              		.loc 1 116 5 view .LVU98
 453 0004 2420     		movs	r0, #36
 454              	.LVL64:
 455              		.loc 1 116 5 is_stmt 0 view .LVU99
 456 0006 FFF7FEFF 		bl	EPD_SendCommand
 457              	.LVL65:
 117:App/EPD/epd_api.c ****     for (uint16_t j = 0; j < Height; j++)
 458              		.loc 1 117 5 is_stmt 1 view .LVU100
 459              	.LBB7:
 460              		.loc 1 117 10 view .LVU101
 461              		.loc 1 117 19 is_stmt 0 view .LVU102
 462 000a 0025     		movs	r5, #0
 463              		.loc 1 117 5 view .LVU103
 464 000c 0AE0     		b	.L18
 465              	.LVL66:
 466              	.L19:
 467              	.LBB8:
 118:App/EPD/epd_api.c ****     {
 119:App/EPD/epd_api.c ****         for (uint16_t i = 0; i < Width; i++)
 120:App/EPD/epd_api.c ****         {
 121:App/EPD/epd_api.c ****             EPD_SendData(blackImage[i + j * Width]);
 468              		.loc 1 121 13 is_stmt 1 discriminator 3 view .LVU104
 469              		.loc 1 121 43 is_stmt 0 discriminator 3 view .LVU105
 470 000e 2B01     		lsls	r3, r5, #4
 471              		.loc 1 121 39 discriminator 3 view .LVU106
 472 0010 E318     		adds	r3, r4, r3
 473              		.loc 1 121 13 discriminator 3 view .LVU107
 474 0012 F05C     		ldrb	r0, [r6, r3]
 475 0014 FFF7FEFF 		bl	EPD_SendData
 476              	.LVL67:
 119:App/EPD/epd_api.c ****         {
 477              		.loc 1 119 41 is_stmt 1 discriminator 3 view .LVU108
 119:App/EPD/epd_api.c ****         {
 478              		.loc 1 119 42 is_stmt 0 discriminator 3 view .LVU109
 479 0018 0134     		adds	r4, r4, #1
 480              	.LVL68:
 119:App/EPD/epd_api.c ****         {
 481              		.loc 1 119 42 discriminator 3 view .LVU110
 482 001a A4B2     		uxth	r4, r4
 483              	.LVL69:
 484              	.L20:
 119:App/EPD/epd_api.c ****         {
 485              		.loc 1 119 30 is_stmt 1 discriminator 1 view .LVU111
 119:App/EPD/epd_api.c ****         {
 486              		.loc 1 119 9 is_stmt 0 discriminator 1 view .LVU112
 487 001c 0F2C     		cmp	r4, #15
 488 001e F6D9     		bls	.L19
 489              	.LBE8:
 117:App/EPD/epd_api.c ****     for (uint16_t j = 0; j < Height; j++)
 490              		.loc 1 117 38 is_stmt 1 discriminator 2 view .LVU113
 117:App/EPD/epd_api.c ****     for (uint16_t j = 0; j < Height; j++)
 491              		.loc 1 117 39 is_stmt 0 discriminator 2 view .LVU114
 492 0020 0135     		adds	r5, r5, #1
 493              	.LVL70:
 117:App/EPD/epd_api.c ****     for (uint16_t j = 0; j < Height; j++)
ARM GAS  C:\Users\Nathan\AppData\Local\Temp\cckURzj9.s 			page 12


 494              		.loc 1 117 39 discriminator 2 view .LVU115
 495 0022 ADB2     		uxth	r5, r5
 496              	.LVL71:
 497              	.L18:
 117:App/EPD/epd_api.c ****     for (uint16_t j = 0; j < Height; j++)
 498              		.loc 1 117 26 is_stmt 1 discriminator 1 view .LVU116
 117:App/EPD/epd_api.c ****     for (uint16_t j = 0; j < Height; j++)
 499              		.loc 1 117 5 is_stmt 0 discriminator 1 view .LVU117
 500 0024 F92D     		cmp	r5, #249
 501 0026 01D8     		bhi	.L22
 502              	.LBB9:
 119:App/EPD/epd_api.c ****         {
 503              		.loc 1 119 23 view .LVU118
 504 0028 0024     		movs	r4, #0
 505 002a F7E7     		b	.L20
 506              	.L22:
 507              	.LBE9:
 508              	.LBE7:
 122:App/EPD/epd_api.c ****         }
 123:App/EPD/epd_api.c ****     }
 124:App/EPD/epd_api.c **** }
 509              		.loc 1 124 1 view .LVU119
 510              		@ sp needed
 511              	.LVL72:
 512              	.LVL73:
 513              		.loc 1 124 1 view .LVU120
 514 002c 70BD     		pop	{r4, r5, r6, pc}
 515              		.cfi_endproc
 516              	.LFE185:
 518              		.section	.text.EPD_UpdateRed,"ax",%progbits
 519              		.align	1
 520              		.global	EPD_UpdateRed
 521              		.syntax unified
 522              		.code	16
 523              		.thumb_func
 525              	EPD_UpdateRed:
 526              	.LVL74:
 527              	.LFB186:
 125:App/EPD/epd_api.c **** 
 126:App/EPD/epd_api.c **** void EPD_UpdateRed(const uint8_t *redImage)
 127:App/EPD/epd_api.c **** {
 528              		.loc 1 127 1 is_stmt 1 view -0
 529              		.cfi_startproc
 530              		@ args = 0, pretend = 0, frame = 0
 531              		@ frame_needed = 0, uses_anonymous_args = 0
 532              		.loc 1 127 1 is_stmt 0 view .LVU122
 533 0000 70B5     		push	{r4, r5, r6, lr}
 534              	.LCFI6:
 535              		.cfi_def_cfa_offset 16
 536              		.cfi_offset 4, -16
 537              		.cfi_offset 5, -12
 538              		.cfi_offset 6, -8
 539              		.cfi_offset 14, -4
 540 0002 0600     		movs	r6, r0
 128:App/EPD/epd_api.c ****     uint16_t Width, Height;
 541              		.loc 1 128 5 is_stmt 1 view .LVU123
 129:App/EPD/epd_api.c ****     Width = (EPD_WIDTH % 8 == 0)? (EPD_WIDTH / 8 ): (EPD_WIDTH / 8 + 1);
ARM GAS  C:\Users\Nathan\AppData\Local\Temp\cckURzj9.s 			page 13


 542              		.loc 1 129 5 view .LVU124
 543              	.LVL75:
 130:App/EPD/epd_api.c ****     Height = EPD_HEIGHT;
 544              		.loc 1 130 5 view .LVU125
 131:App/EPD/epd_api.c ****     
 132:App/EPD/epd_api.c ****     EPD_SendCommand(0x26);
 545              		.loc 1 132 5 view .LVU126
 546 0004 2620     		movs	r0, #38
 547              	.LVL76:
 548              		.loc 1 132 5 is_stmt 0 view .LVU127
 549 0006 FFF7FEFF 		bl	EPD_SendCommand
 550              	.LVL77:
 133:App/EPD/epd_api.c ****     for (uint16_t j = 0; j < Height; j++)
 551              		.loc 1 133 5 is_stmt 1 view .LVU128
 552              	.LBB10:
 553              		.loc 1 133 10 view .LVU129
 554              		.loc 1 133 19 is_stmt 0 view .LVU130
 555 000a 0025     		movs	r5, #0
 556              		.loc 1 133 5 view .LVU131
 557 000c 0AE0     		b	.L24
 558              	.LVL78:
 559              	.L25:
 560              	.LBB11:
 134:App/EPD/epd_api.c ****     {
 135:App/EPD/epd_api.c ****         for (uint16_t i = 0; i < Width; i++)
 136:App/EPD/epd_api.c ****         {
 137:App/EPD/epd_api.c ****             EPD_SendData(redImage[i + j * Width]);
 561              		.loc 1 137 13 is_stmt 1 discriminator 3 view .LVU132
 562              		.loc 1 137 41 is_stmt 0 discriminator 3 view .LVU133
 563 000e 2B01     		lsls	r3, r5, #4
 564              		.loc 1 137 37 discriminator 3 view .LVU134
 565 0010 E318     		adds	r3, r4, r3
 566              		.loc 1 137 13 discriminator 3 view .LVU135
 567 0012 F05C     		ldrb	r0, [r6, r3]
 568 0014 FFF7FEFF 		bl	EPD_SendData
 569              	.LVL79:
 135:App/EPD/epd_api.c ****         {
 570              		.loc 1 135 41 is_stmt 1 discriminator 3 view .LVU136
 135:App/EPD/epd_api.c ****         {
 571              		.loc 1 135 42 is_stmt 0 discriminator 3 view .LVU137
 572 0018 0134     		adds	r4, r4, #1
 573              	.LVL80:
 135:App/EPD/epd_api.c ****         {
 574              		.loc 1 135 42 discriminator 3 view .LVU138
 575 001a A4B2     		uxth	r4, r4
 576              	.LVL81:
 577              	.L26:
 135:App/EPD/epd_api.c ****         {
 578              		.loc 1 135 30 is_stmt 1 discriminator 1 view .LVU139
 135:App/EPD/epd_api.c ****         {
 579              		.loc 1 135 9 is_stmt 0 discriminator 1 view .LVU140
 580 001c 0F2C     		cmp	r4, #15
 581 001e F6D9     		bls	.L25
 582              	.LBE11:
 133:App/EPD/epd_api.c ****     for (uint16_t j = 0; j < Height; j++)
 583              		.loc 1 133 38 is_stmt 1 discriminator 2 view .LVU141
 133:App/EPD/epd_api.c ****     for (uint16_t j = 0; j < Height; j++)
ARM GAS  C:\Users\Nathan\AppData\Local\Temp\cckURzj9.s 			page 14


 584              		.loc 1 133 39 is_stmt 0 discriminator 2 view .LVU142
 585 0020 0135     		adds	r5, r5, #1
 586              	.LVL82:
 133:App/EPD/epd_api.c ****     for (uint16_t j = 0; j < Height; j++)
 587              		.loc 1 133 39 discriminator 2 view .LVU143
 588 0022 ADB2     		uxth	r5, r5
 589              	.LVL83:
 590              	.L24:
 133:App/EPD/epd_api.c ****     for (uint16_t j = 0; j < Height; j++)
 591              		.loc 1 133 26 is_stmt 1 discriminator 1 view .LVU144
 133:App/EPD/epd_api.c ****     for (uint16_t j = 0; j < Height; j++)
 592              		.loc 1 133 5 is_stmt 0 discriminator 1 view .LVU145
 593 0024 F92D     		cmp	r5, #249
 594 0026 01D8     		bhi	.L28
 595              	.LBB12:
 135:App/EPD/epd_api.c ****         {
 596              		.loc 1 135 23 view .LVU146
 597 0028 0024     		movs	r4, #0
 598 002a F7E7     		b	.L26
 599              	.L28:
 600              	.LBE12:
 601              	.LBE10:
 138:App/EPD/epd_api.c ****         }
 139:App/EPD/epd_api.c ****     }
 140:App/EPD/epd_api.c **** }
 602              		.loc 1 140 1 view .LVU147
 603              		@ sp needed
 604              	.LVL84:
 605              	.LVL85:
 606              		.loc 1 140 1 view .LVU148
 607 002c 70BD     		pop	{r4, r5, r6, pc}
 608              		.cfi_endproc
 609              	.LFE186:
 611              		.section	.text.EPD_UpdateAll,"ax",%progbits
 612              		.align	1
 613              		.global	EPD_UpdateAll
 614              		.syntax unified
 615              		.code	16
 616              		.thumb_func
 618              	EPD_UpdateAll:
 619              	.LVL86:
 620              	.LFB187:
 141:App/EPD/epd_api.c **** 
 142:App/EPD/epd_api.c **** void EPD_UpdateAll(const uint8_t *blackImage, const uint8_t *redImage)
 143:App/EPD/epd_api.c **** {
 621              		.loc 1 143 1 is_stmt 1 view -0
 622              		.cfi_startproc
 623              		@ args = 0, pretend = 0, frame = 0
 624              		@ frame_needed = 0, uses_anonymous_args = 0
 625              		.loc 1 143 1 is_stmt 0 view .LVU150
 626 0000 F8B5     		push	{r3, r4, r5, r6, r7, lr}
 627              	.LCFI7:
 628              		.cfi_def_cfa_offset 24
 629              		.cfi_offset 3, -24
 630              		.cfi_offset 4, -20
 631              		.cfi_offset 5, -16
 632              		.cfi_offset 6, -12
ARM GAS  C:\Users\Nathan\AppData\Local\Temp\cckURzj9.s 			page 15


 633              		.cfi_offset 7, -8
 634              		.cfi_offset 14, -4
 635 0002 0700     		movs	r7, r0
 636 0004 0D00     		movs	r5, r1
 144:App/EPD/epd_api.c ****     uint16_t Width, Height;
 637              		.loc 1 144 5 is_stmt 1 view .LVU151
 145:App/EPD/epd_api.c ****     Width = (EPD_WIDTH % 8 == 0)? (EPD_WIDTH / 8 ): (EPD_WIDTH / 8 + 1);
 638              		.loc 1 145 5 view .LVU152
 639              	.LVL87:
 146:App/EPD/epd_api.c ****     Height = EPD_HEIGHT;
 640              		.loc 1 146 5 view .LVU153
 147:App/EPD/epd_api.c ****     
 148:App/EPD/epd_api.c ****     EPD_SendCommand(0x24);
 641              		.loc 1 148 5 view .LVU154
 642 0006 2420     		movs	r0, #36
 643              	.LVL88:
 644              		.loc 1 148 5 is_stmt 0 view .LVU155
 645 0008 FFF7FEFF 		bl	EPD_SendCommand
 646              	.LVL89:
 149:App/EPD/epd_api.c ****     for (uint16_t j = 0; j < Height; j++)
 647              		.loc 1 149 5 is_stmt 1 view .LVU156
 648              	.LBB13:
 649              		.loc 1 149 10 view .LVU157
 650              		.loc 1 149 19 is_stmt 0 view .LVU158
 651 000c 0026     		movs	r6, #0
 652              		.loc 1 149 5 view .LVU159
 653 000e 01E0     		b	.L30
 654              	.LVL90:
 655              	.L39:
 656              		.loc 1 149 38 is_stmt 1 discriminator 2 view .LVU160
 657              		.loc 1 149 39 is_stmt 0 discriminator 2 view .LVU161
 658 0010 0136     		adds	r6, r6, #1
 659              	.LVL91:
 660              		.loc 1 149 39 discriminator 2 view .LVU162
 661 0012 B6B2     		uxth	r6, r6
 662              	.LVL92:
 663              	.L30:
 664              		.loc 1 149 26 is_stmt 1 discriminator 1 view .LVU163
 665              		.loc 1 149 5 is_stmt 0 discriminator 1 view .LVU164
 666 0014 F92E     		cmp	r6, #249
 667 0016 0AD8     		bhi	.L38
 668              	.LBB14:
 150:App/EPD/epd_api.c ****     {
 151:App/EPD/epd_api.c ****         for (uint16_t i = 0; i < Width; i++)
 669              		.loc 1 151 23 view .LVU165
 670 0018 0024     		movs	r4, #0
 671              	.L32:
 672              	.LVL93:
 673              		.loc 1 151 30 is_stmt 1 discriminator 1 view .LVU166
 674              		.loc 1 151 9 is_stmt 0 discriminator 1 view .LVU167
 675 001a 0F2C     		cmp	r4, #15
 676 001c F8D8     		bhi	.L39
 152:App/EPD/epd_api.c ****         {
 153:App/EPD/epd_api.c ****             EPD_SendData(blackImage[i + j * Width]);
 677              		.loc 1 153 13 is_stmt 1 discriminator 3 view .LVU168
 678              		.loc 1 153 43 is_stmt 0 discriminator 3 view .LVU169
 679 001e 3301     		lsls	r3, r6, #4
ARM GAS  C:\Users\Nathan\AppData\Local\Temp\cckURzj9.s 			page 16


 680              		.loc 1 153 39 discriminator 3 view .LVU170
 681 0020 E318     		adds	r3, r4, r3
 682              		.loc 1 153 13 discriminator 3 view .LVU171
 683 0022 F85C     		ldrb	r0, [r7, r3]
 684 0024 FFF7FEFF 		bl	EPD_SendData
 685              	.LVL94:
 151:App/EPD/epd_api.c ****         {
 686              		.loc 1 151 41 is_stmt 1 discriminator 3 view .LVU172
 151:App/EPD/epd_api.c ****         {
 687              		.loc 1 151 42 is_stmt 0 discriminator 3 view .LVU173
 688 0028 0134     		adds	r4, r4, #1
 689              	.LVL95:
 151:App/EPD/epd_api.c ****         {
 690              		.loc 1 151 42 discriminator 3 view .LVU174
 691 002a A4B2     		uxth	r4, r4
 692              	.LVL96:
 151:App/EPD/epd_api.c ****         {
 693              		.loc 1 151 42 discriminator 3 view .LVU175
 694 002c F5E7     		b	.L32
 695              	.LVL97:
 696              	.L38:
 151:App/EPD/epd_api.c ****         {
 697              		.loc 1 151 42 discriminator 3 view .LVU176
 698              	.LBE14:
 699              	.LBE13:
 154:App/EPD/epd_api.c ****         }
 155:App/EPD/epd_api.c ****     }
 156:App/EPD/epd_api.c ****     EPD_SendCommand(0x26);
 700              		.loc 1 156 5 is_stmt 1 view .LVU177
 701 002e 2620     		movs	r0, #38
 702 0030 FFF7FEFF 		bl	EPD_SendCommand
 703              	.LVL98:
 157:App/EPD/epd_api.c ****     for (uint16_t j = 0; j < Height; j++)
 704              		.loc 1 157 5 view .LVU178
 705              	.LBB15:
 706              		.loc 1 157 10 view .LVU179
 707              		.loc 1 157 19 is_stmt 0 view .LVU180
 708 0034 0026     		movs	r6, #0
 709              	.LVL99:
 710              		.loc 1 157 5 view .LVU181
 711 0036 0AE0     		b	.L33
 712              	.LVL100:
 713              	.L34:
 714              	.LBB16:
 158:App/EPD/epd_api.c ****     {
 159:App/EPD/epd_api.c ****         for (uint16_t i = 0; i < Width; i++)
 160:App/EPD/epd_api.c ****         {
 161:App/EPD/epd_api.c ****             EPD_SendData(redImage[i + j * Width]);
 715              		.loc 1 161 13 is_stmt 1 discriminator 3 view .LVU182
 716              		.loc 1 161 41 is_stmt 0 discriminator 3 view .LVU183
 717 0038 3301     		lsls	r3, r6, #4
 718              		.loc 1 161 37 discriminator 3 view .LVU184
 719 003a E318     		adds	r3, r4, r3
 720              		.loc 1 161 13 discriminator 3 view .LVU185
 721 003c E85C     		ldrb	r0, [r5, r3]
 722 003e FFF7FEFF 		bl	EPD_SendData
 723              	.LVL101:
ARM GAS  C:\Users\Nathan\AppData\Local\Temp\cckURzj9.s 			page 17


 159:App/EPD/epd_api.c ****         {
 724              		.loc 1 159 41 is_stmt 1 discriminator 3 view .LVU186
 159:App/EPD/epd_api.c ****         {
 725              		.loc 1 159 42 is_stmt 0 discriminator 3 view .LVU187
 726 0042 0134     		adds	r4, r4, #1
 727              	.LVL102:
 159:App/EPD/epd_api.c ****         {
 728              		.loc 1 159 42 discriminator 3 view .LVU188
 729 0044 A4B2     		uxth	r4, r4
 730              	.LVL103:
 731              	.L35:
 159:App/EPD/epd_api.c ****         {
 732              		.loc 1 159 30 is_stmt 1 discriminator 1 view .LVU189
 159:App/EPD/epd_api.c ****         {
 733              		.loc 1 159 9 is_stmt 0 discriminator 1 view .LVU190
 734 0046 0F2C     		cmp	r4, #15
 735 0048 F6D9     		bls	.L34
 736              	.LBE16:
 157:App/EPD/epd_api.c ****     for (uint16_t j = 0; j < Height; j++)
 737              		.loc 1 157 38 is_stmt 1 discriminator 2 view .LVU191
 157:App/EPD/epd_api.c ****     for (uint16_t j = 0; j < Height; j++)
 738              		.loc 1 157 39 is_stmt 0 discriminator 2 view .LVU192
 739 004a 0136     		adds	r6, r6, #1
 740              	.LVL104:
 157:App/EPD/epd_api.c ****     for (uint16_t j = 0; j < Height; j++)
 741              		.loc 1 157 39 discriminator 2 view .LVU193
 742 004c B6B2     		uxth	r6, r6
 743              	.LVL105:
 744              	.L33:
 157:App/EPD/epd_api.c ****     for (uint16_t j = 0; j < Height; j++)
 745              		.loc 1 157 26 is_stmt 1 discriminator 1 view .LVU194
 157:App/EPD/epd_api.c ****     for (uint16_t j = 0; j < Height; j++)
 746              		.loc 1 157 5 is_stmt 0 discriminator 1 view .LVU195
 747 004e F92E     		cmp	r6, #249
 748 0050 01D8     		bhi	.L40
 749              	.LBB17:
 159:App/EPD/epd_api.c ****         {
 750              		.loc 1 159 23 view .LVU196
 751 0052 0024     		movs	r4, #0
 752 0054 F7E7     		b	.L35
 753              	.L40:
 754              	.LBE17:
 755              	.LBE15:
 162:App/EPD/epd_api.c ****         }
 163:App/EPD/epd_api.c ****     }
 164:App/EPD/epd_api.c ****     EPD_TurnOnDisplay();
 756              		.loc 1 164 5 is_stmt 1 view .LVU197
 757 0056 FFF7FEFF 		bl	EPD_TurnOnDisplay
 758              	.LVL106:
 165:App/EPD/epd_api.c **** }
 759              		.loc 1 165 1 is_stmt 0 view .LVU198
 760              		@ sp needed
 761              	.LVL107:
 762              	.LVL108:
 763              	.LVL109:
 764              		.loc 1 165 1 view .LVU199
 765 005a F8BD     		pop	{r3, r4, r5, r6, r7, pc}
ARM GAS  C:\Users\Nathan\AppData\Local\Temp\cckURzj9.s 			page 18


 766              		.cfi_endproc
 767              	.LFE187:
 769              		.section	.text.EPD_Sleep,"ax",%progbits
 770              		.align	1
 771              		.global	EPD_Sleep
 772              		.syntax unified
 773              		.code	16
 774              		.thumb_func
 776              	EPD_Sleep:
 777              	.LFB188:
 166:App/EPD/epd_api.c **** 
 167:App/EPD/epd_api.c **** void EPD_Sleep(void)
 168:App/EPD/epd_api.c **** {
 778              		.loc 1 168 1 is_stmt 1 view -0
 779              		.cfi_startproc
 780              		@ args = 0, pretend = 0, frame = 0
 781              		@ frame_needed = 0, uses_anonymous_args = 0
 782 0000 10B5     		push	{r4, lr}
 783              	.LCFI8:
 784              		.cfi_def_cfa_offset 8
 785              		.cfi_offset 4, -8
 786              		.cfi_offset 14, -4
 169:App/EPD/epd_api.c ****     EPD_SendCommand(0x10); //enter deep sleep
 787              		.loc 1 169 5 view .LVU201
 788 0002 1020     		movs	r0, #16
 789 0004 FFF7FEFF 		bl	EPD_SendCommand
 790              	.LVL110:
 170:App/EPD/epd_api.c ****     EPD_SendData(0x01);
 791              		.loc 1 170 5 view .LVU202
 792 0008 0120     		movs	r0, #1
 793 000a FFF7FEFF 		bl	EPD_SendData
 794              	.LVL111:
 171:App/EPD/epd_api.c ****     EPD_Delay_ms(100);
 795              		.loc 1 171 5 view .LVU203
 796 000e 6420     		movs	r0, #100
 797 0010 FFF7FEFF 		bl	EPD_Delay_ms
 798              	.LVL112:
 172:App/EPD/epd_api.c **** }
 799              		.loc 1 172 1 is_stmt 0 view .LVU204
 800              		@ sp needed
 801 0014 10BD     		pop	{r4, pc}
 802              		.cfi_endproc
 803              	.LFE188:
 805              		.text
 806              	.Letext0:
 807              		.file 2 "c:\\developtools\\gcc-arm-none-eabi-10.3-2021.10\\arm-none-eabi\\include\\machine\\_defau
 808              		.file 3 "c:\\developtools\\gcc-arm-none-eabi-10.3-2021.10\\arm-none-eabi\\include\\sys\\_stdint.h"
 809              		.file 4 "App/EPD/epd_driver.h"
ARM GAS  C:\Users\Nathan\AppData\Local\Temp\cckURzj9.s 			page 19

