ARM GAS  C:\Users\Nathan\AppData\Local\Temp\ccAQTZu2.s 			page 1


   1              		.cpu cortex-m0plus
   2              		.arch armv6s-m
   3              		.fpu softvfp
   4              		.eabi_attribute 20, 1
   5              		.eabi_attribute 21, 1
   6              		.eabi_attribute 23, 3
   7              		.eabi_attribute 24, 1
   8              		.eabi_attribute 25, 1
   9              		.eabi_attribute 26, 1
  10              		.eabi_attribute 30, 1
  11              		.eabi_attribute 34, 0
  12              		.eabi_attribute 18, 4
  13              		.file	"stm32l0xx_ll_rtc.c"
  14              		.text
  15              	.Ltext0:
  16              		.cfi_sections	.debug_frame
  17              		.section	.text.LL_RTC_StructInit,"ax",%progbits
  18              		.align	1
  19              		.global	LL_RTC_StructInit
  20              		.syntax unified
  21              		.code	16
  22              		.thumb_func
  24              	LL_RTC_StructInit:
  25              	.LVL0:
  26              	.LFB263:
  27              		.file 1 "Drivers/STM32L0xx_HAL_Driver/Src/stm32l0xx_ll_rtc.c"
   1:Drivers/STM32L0xx_HAL_Driver/Src/stm32l0xx_ll_rtc.c **** /**
   2:Drivers/STM32L0xx_HAL_Driver/Src/stm32l0xx_ll_rtc.c ****   ******************************************************************************
   3:Drivers/STM32L0xx_HAL_Driver/Src/stm32l0xx_ll_rtc.c ****   * @file    stm32l0xx_ll_rtc.c
   4:Drivers/STM32L0xx_HAL_Driver/Src/stm32l0xx_ll_rtc.c ****   * @author  MCD Application Team
   5:Drivers/STM32L0xx_HAL_Driver/Src/stm32l0xx_ll_rtc.c ****   * @brief   RTC LL module driver.
   6:Drivers/STM32L0xx_HAL_Driver/Src/stm32l0xx_ll_rtc.c ****   ******************************************************************************
   7:Drivers/STM32L0xx_HAL_Driver/Src/stm32l0xx_ll_rtc.c ****   * @attention
   8:Drivers/STM32L0xx_HAL_Driver/Src/stm32l0xx_ll_rtc.c ****   *
   9:Drivers/STM32L0xx_HAL_Driver/Src/stm32l0xx_ll_rtc.c ****   * Copyright (c) 2016 STMicroelectronics.
  10:Drivers/STM32L0xx_HAL_Driver/Src/stm32l0xx_ll_rtc.c ****   * All rights reserved.
  11:Drivers/STM32L0xx_HAL_Driver/Src/stm32l0xx_ll_rtc.c ****   *
  12:Drivers/STM32L0xx_HAL_Driver/Src/stm32l0xx_ll_rtc.c ****   * This software is licensed under terms that can be found in the LICENSE file
  13:Drivers/STM32L0xx_HAL_Driver/Src/stm32l0xx_ll_rtc.c ****   * in the root directory of this software component.
  14:Drivers/STM32L0xx_HAL_Driver/Src/stm32l0xx_ll_rtc.c ****   * If no LICENSE file comes with this software, it is provided AS-IS.
  15:Drivers/STM32L0xx_HAL_Driver/Src/stm32l0xx_ll_rtc.c ****   *
  16:Drivers/STM32L0xx_HAL_Driver/Src/stm32l0xx_ll_rtc.c ****   ******************************************************************************
  17:Drivers/STM32L0xx_HAL_Driver/Src/stm32l0xx_ll_rtc.c ****   */
  18:Drivers/STM32L0xx_HAL_Driver/Src/stm32l0xx_ll_rtc.c **** #if defined(USE_FULL_LL_DRIVER)
  19:Drivers/STM32L0xx_HAL_Driver/Src/stm32l0xx_ll_rtc.c **** 
  20:Drivers/STM32L0xx_HAL_Driver/Src/stm32l0xx_ll_rtc.c **** /* Includes ------------------------------------------------------------------*/
  21:Drivers/STM32L0xx_HAL_Driver/Src/stm32l0xx_ll_rtc.c **** #include "stm32l0xx_ll_rtc.h"
  22:Drivers/STM32L0xx_HAL_Driver/Src/stm32l0xx_ll_rtc.c **** #include "stm32l0xx_ll_cortex.h"
  23:Drivers/STM32L0xx_HAL_Driver/Src/stm32l0xx_ll_rtc.c **** #ifdef  USE_FULL_ASSERT
  24:Drivers/STM32L0xx_HAL_Driver/Src/stm32l0xx_ll_rtc.c **** #include "stm32_assert.h"
  25:Drivers/STM32L0xx_HAL_Driver/Src/stm32l0xx_ll_rtc.c **** #else
  26:Drivers/STM32L0xx_HAL_Driver/Src/stm32l0xx_ll_rtc.c **** #define assert_param(expr) ((void)0U)
  27:Drivers/STM32L0xx_HAL_Driver/Src/stm32l0xx_ll_rtc.c **** #endif
  28:Drivers/STM32L0xx_HAL_Driver/Src/stm32l0xx_ll_rtc.c **** 
  29:Drivers/STM32L0xx_HAL_Driver/Src/stm32l0xx_ll_rtc.c **** /** @addtogroup STM32L0xx_LL_Driver
  30:Drivers/STM32L0xx_HAL_Driver/Src/stm32l0xx_ll_rtc.c ****   * @{
  31:Drivers/STM32L0xx_HAL_Driver/Src/stm32l0xx_ll_rtc.c ****   */
ARM GAS  C:\Users\Nathan\AppData\Local\Temp\ccAQTZu2.s 			page 2


  32:Drivers/STM32L0xx_HAL_Driver/Src/stm32l0xx_ll_rtc.c **** 
  33:Drivers/STM32L0xx_HAL_Driver/Src/stm32l0xx_ll_rtc.c **** #if defined(RTC)
  34:Drivers/STM32L0xx_HAL_Driver/Src/stm32l0xx_ll_rtc.c **** 
  35:Drivers/STM32L0xx_HAL_Driver/Src/stm32l0xx_ll_rtc.c **** /** @addtogroup RTC_LL
  36:Drivers/STM32L0xx_HAL_Driver/Src/stm32l0xx_ll_rtc.c ****   * @{
  37:Drivers/STM32L0xx_HAL_Driver/Src/stm32l0xx_ll_rtc.c ****   */
  38:Drivers/STM32L0xx_HAL_Driver/Src/stm32l0xx_ll_rtc.c **** 
  39:Drivers/STM32L0xx_HAL_Driver/Src/stm32l0xx_ll_rtc.c **** /* Private types -------------------------------------------------------------*/
  40:Drivers/STM32L0xx_HAL_Driver/Src/stm32l0xx_ll_rtc.c **** /* Private variables ---------------------------------------------------------*/
  41:Drivers/STM32L0xx_HAL_Driver/Src/stm32l0xx_ll_rtc.c **** /* Private constants ---------------------------------------------------------*/
  42:Drivers/STM32L0xx_HAL_Driver/Src/stm32l0xx_ll_rtc.c **** /** @addtogroup RTC_LL_Private_Constants
  43:Drivers/STM32L0xx_HAL_Driver/Src/stm32l0xx_ll_rtc.c ****   * @{
  44:Drivers/STM32L0xx_HAL_Driver/Src/stm32l0xx_ll_rtc.c ****   */
  45:Drivers/STM32L0xx_HAL_Driver/Src/stm32l0xx_ll_rtc.c **** /* Default values used for prescaler */
  46:Drivers/STM32L0xx_HAL_Driver/Src/stm32l0xx_ll_rtc.c **** #define RTC_ASYNCH_PRESC_DEFAULT     0x0000007FU
  47:Drivers/STM32L0xx_HAL_Driver/Src/stm32l0xx_ll_rtc.c **** #define RTC_SYNCH_PRESC_DEFAULT      0x000000FFU
  48:Drivers/STM32L0xx_HAL_Driver/Src/stm32l0xx_ll_rtc.c **** 
  49:Drivers/STM32L0xx_HAL_Driver/Src/stm32l0xx_ll_rtc.c **** /* Values used for timeout */
  50:Drivers/STM32L0xx_HAL_Driver/Src/stm32l0xx_ll_rtc.c **** #define RTC_INITMODE_TIMEOUT         1000U /* 1s when tick set to 1ms */
  51:Drivers/STM32L0xx_HAL_Driver/Src/stm32l0xx_ll_rtc.c **** #define RTC_SYNCHRO_TIMEOUT          1000U /* 1s when tick set to 1ms */
  52:Drivers/STM32L0xx_HAL_Driver/Src/stm32l0xx_ll_rtc.c **** /**
  53:Drivers/STM32L0xx_HAL_Driver/Src/stm32l0xx_ll_rtc.c ****   * @}
  54:Drivers/STM32L0xx_HAL_Driver/Src/stm32l0xx_ll_rtc.c ****   */
  55:Drivers/STM32L0xx_HAL_Driver/Src/stm32l0xx_ll_rtc.c **** 
  56:Drivers/STM32L0xx_HAL_Driver/Src/stm32l0xx_ll_rtc.c **** /* Private macros ------------------------------------------------------------*/
  57:Drivers/STM32L0xx_HAL_Driver/Src/stm32l0xx_ll_rtc.c **** /** @addtogroup RTC_LL_Private_Macros
  58:Drivers/STM32L0xx_HAL_Driver/Src/stm32l0xx_ll_rtc.c ****   * @{
  59:Drivers/STM32L0xx_HAL_Driver/Src/stm32l0xx_ll_rtc.c ****   */
  60:Drivers/STM32L0xx_HAL_Driver/Src/stm32l0xx_ll_rtc.c **** 
  61:Drivers/STM32L0xx_HAL_Driver/Src/stm32l0xx_ll_rtc.c **** #define IS_LL_RTC_HOURFORMAT(__VALUE__) (((__VALUE__) == LL_RTC_HOURFORMAT_24HOUR) \
  62:Drivers/STM32L0xx_HAL_Driver/Src/stm32l0xx_ll_rtc.c ****                                       || ((__VALUE__) == LL_RTC_HOURFORMAT_AMPM))
  63:Drivers/STM32L0xx_HAL_Driver/Src/stm32l0xx_ll_rtc.c **** 
  64:Drivers/STM32L0xx_HAL_Driver/Src/stm32l0xx_ll_rtc.c **** #define IS_LL_RTC_ASYNCH_PREDIV(__VALUE__)   ((__VALUE__) <= 0x7FU)
  65:Drivers/STM32L0xx_HAL_Driver/Src/stm32l0xx_ll_rtc.c **** 
  66:Drivers/STM32L0xx_HAL_Driver/Src/stm32l0xx_ll_rtc.c **** #define IS_LL_RTC_SYNCH_PREDIV(__VALUE__)    ((__VALUE__) <= 0x7FFFU)
  67:Drivers/STM32L0xx_HAL_Driver/Src/stm32l0xx_ll_rtc.c **** 
  68:Drivers/STM32L0xx_HAL_Driver/Src/stm32l0xx_ll_rtc.c **** #define IS_LL_RTC_FORMAT(__VALUE__) (((__VALUE__) == LL_RTC_FORMAT_BIN) \
  69:Drivers/STM32L0xx_HAL_Driver/Src/stm32l0xx_ll_rtc.c ****                                   || ((__VALUE__) == LL_RTC_FORMAT_BCD))
  70:Drivers/STM32L0xx_HAL_Driver/Src/stm32l0xx_ll_rtc.c **** 
  71:Drivers/STM32L0xx_HAL_Driver/Src/stm32l0xx_ll_rtc.c **** #define IS_LL_RTC_TIME_FORMAT(__VALUE__) (((__VALUE__) == LL_RTC_TIME_FORMAT_AM_OR_24) \
  72:Drivers/STM32L0xx_HAL_Driver/Src/stm32l0xx_ll_rtc.c ****                                        || ((__VALUE__) == LL_RTC_TIME_FORMAT_PM))
  73:Drivers/STM32L0xx_HAL_Driver/Src/stm32l0xx_ll_rtc.c **** 
  74:Drivers/STM32L0xx_HAL_Driver/Src/stm32l0xx_ll_rtc.c **** #define IS_LL_RTC_HOUR12(__HOUR__)            (((__HOUR__) > 0U) && ((__HOUR__) <= 12U))
  75:Drivers/STM32L0xx_HAL_Driver/Src/stm32l0xx_ll_rtc.c **** #define IS_LL_RTC_HOUR24(__HOUR__)            ((__HOUR__) <= 23U)
  76:Drivers/STM32L0xx_HAL_Driver/Src/stm32l0xx_ll_rtc.c **** #define IS_LL_RTC_MINUTES(__MINUTES__)        ((__MINUTES__) <= 59U)
  77:Drivers/STM32L0xx_HAL_Driver/Src/stm32l0xx_ll_rtc.c **** #define IS_LL_RTC_SECONDS(__SECONDS__)        ((__SECONDS__) <= 59U)
  78:Drivers/STM32L0xx_HAL_Driver/Src/stm32l0xx_ll_rtc.c **** 
  79:Drivers/STM32L0xx_HAL_Driver/Src/stm32l0xx_ll_rtc.c **** #define IS_LL_RTC_WEEKDAY(__VALUE__) (((__VALUE__) == LL_RTC_WEEKDAY_MONDAY) \
  80:Drivers/STM32L0xx_HAL_Driver/Src/stm32l0xx_ll_rtc.c ****                                    || ((__VALUE__) == LL_RTC_WEEKDAY_TUESDAY) \
  81:Drivers/STM32L0xx_HAL_Driver/Src/stm32l0xx_ll_rtc.c ****                                    || ((__VALUE__) == LL_RTC_WEEKDAY_WEDNESDAY) \
  82:Drivers/STM32L0xx_HAL_Driver/Src/stm32l0xx_ll_rtc.c ****                                    || ((__VALUE__) == LL_RTC_WEEKDAY_THURSDAY) \
  83:Drivers/STM32L0xx_HAL_Driver/Src/stm32l0xx_ll_rtc.c ****                                    || ((__VALUE__) == LL_RTC_WEEKDAY_FRIDAY) \
  84:Drivers/STM32L0xx_HAL_Driver/Src/stm32l0xx_ll_rtc.c ****                                    || ((__VALUE__) == LL_RTC_WEEKDAY_SATURDAY) \
  85:Drivers/STM32L0xx_HAL_Driver/Src/stm32l0xx_ll_rtc.c ****                                    || ((__VALUE__) == LL_RTC_WEEKDAY_SUNDAY))
  86:Drivers/STM32L0xx_HAL_Driver/Src/stm32l0xx_ll_rtc.c **** 
  87:Drivers/STM32L0xx_HAL_Driver/Src/stm32l0xx_ll_rtc.c **** #define IS_LL_RTC_DAY(__DAY__)     (((__DAY__) >= 1U) && ((__DAY__) <= 31U))
  88:Drivers/STM32L0xx_HAL_Driver/Src/stm32l0xx_ll_rtc.c **** 
ARM GAS  C:\Users\Nathan\AppData\Local\Temp\ccAQTZu2.s 			page 3


  89:Drivers/STM32L0xx_HAL_Driver/Src/stm32l0xx_ll_rtc.c **** #define IS_LL_RTC_MONTH(__MONTH__) (((__MONTH__) >= 1U) && ((__MONTH__) <= 12U))
  90:Drivers/STM32L0xx_HAL_Driver/Src/stm32l0xx_ll_rtc.c **** 
  91:Drivers/STM32L0xx_HAL_Driver/Src/stm32l0xx_ll_rtc.c **** #define IS_LL_RTC_YEAR(__YEAR__)   ((__YEAR__) <= 99U)
  92:Drivers/STM32L0xx_HAL_Driver/Src/stm32l0xx_ll_rtc.c **** 
  93:Drivers/STM32L0xx_HAL_Driver/Src/stm32l0xx_ll_rtc.c **** #define IS_LL_RTC_ALMA_MASK(__VALUE__) (((__VALUE__) == LL_RTC_ALMA_MASK_NONE) \
  94:Drivers/STM32L0xx_HAL_Driver/Src/stm32l0xx_ll_rtc.c ****                                      || ((__VALUE__) == LL_RTC_ALMA_MASK_DATEWEEKDAY) \
  95:Drivers/STM32L0xx_HAL_Driver/Src/stm32l0xx_ll_rtc.c ****                                      || ((__VALUE__) == LL_RTC_ALMA_MASK_HOURS) \
  96:Drivers/STM32L0xx_HAL_Driver/Src/stm32l0xx_ll_rtc.c ****                                      || ((__VALUE__) == LL_RTC_ALMA_MASK_MINUTES) \
  97:Drivers/STM32L0xx_HAL_Driver/Src/stm32l0xx_ll_rtc.c ****                                      || ((__VALUE__) == LL_RTC_ALMA_MASK_SECONDS) \
  98:Drivers/STM32L0xx_HAL_Driver/Src/stm32l0xx_ll_rtc.c ****                                      || ((__VALUE__) == LL_RTC_ALMA_MASK_ALL))
  99:Drivers/STM32L0xx_HAL_Driver/Src/stm32l0xx_ll_rtc.c **** 
 100:Drivers/STM32L0xx_HAL_Driver/Src/stm32l0xx_ll_rtc.c **** #define IS_LL_RTC_ALMB_MASK(__VALUE__) (((__VALUE__) == LL_RTC_ALMB_MASK_NONE) \
 101:Drivers/STM32L0xx_HAL_Driver/Src/stm32l0xx_ll_rtc.c ****                                      || ((__VALUE__) == LL_RTC_ALMB_MASK_DATEWEEKDAY) \
 102:Drivers/STM32L0xx_HAL_Driver/Src/stm32l0xx_ll_rtc.c ****                                      || ((__VALUE__) == LL_RTC_ALMB_MASK_HOURS) \
 103:Drivers/STM32L0xx_HAL_Driver/Src/stm32l0xx_ll_rtc.c ****                                      || ((__VALUE__) == LL_RTC_ALMB_MASK_MINUTES) \
 104:Drivers/STM32L0xx_HAL_Driver/Src/stm32l0xx_ll_rtc.c ****                                      || ((__VALUE__) == LL_RTC_ALMB_MASK_SECONDS) \
 105:Drivers/STM32L0xx_HAL_Driver/Src/stm32l0xx_ll_rtc.c ****                                      || ((__VALUE__) == LL_RTC_ALMB_MASK_ALL))
 106:Drivers/STM32L0xx_HAL_Driver/Src/stm32l0xx_ll_rtc.c **** 
 107:Drivers/STM32L0xx_HAL_Driver/Src/stm32l0xx_ll_rtc.c **** #define IS_LL_RTC_ALMA_DATE_WEEKDAY_SEL(__SEL__) (((__SEL__) == LL_RTC_ALMA_DATEWEEKDAYSEL_DATE) ||
 108:Drivers/STM32L0xx_HAL_Driver/Src/stm32l0xx_ll_rtc.c ****                                                   ((__SEL__) == LL_RTC_ALMA_DATEWEEKDAYSEL_WEEKDAY)
 109:Drivers/STM32L0xx_HAL_Driver/Src/stm32l0xx_ll_rtc.c **** 
 110:Drivers/STM32L0xx_HAL_Driver/Src/stm32l0xx_ll_rtc.c **** #define IS_LL_RTC_ALMB_DATE_WEEKDAY_SEL(__SEL__) (((__SEL__) == LL_RTC_ALMB_DATEWEEKDAYSEL_DATE) ||
 111:Drivers/STM32L0xx_HAL_Driver/Src/stm32l0xx_ll_rtc.c ****                                                   ((__SEL__) == LL_RTC_ALMB_DATEWEEKDAYSEL_WEEKDAY)
 112:Drivers/STM32L0xx_HAL_Driver/Src/stm32l0xx_ll_rtc.c **** 
 113:Drivers/STM32L0xx_HAL_Driver/Src/stm32l0xx_ll_rtc.c **** /**
 114:Drivers/STM32L0xx_HAL_Driver/Src/stm32l0xx_ll_rtc.c ****   * @}
 115:Drivers/STM32L0xx_HAL_Driver/Src/stm32l0xx_ll_rtc.c ****   */
 116:Drivers/STM32L0xx_HAL_Driver/Src/stm32l0xx_ll_rtc.c **** /* Private function prototypes -----------------------------------------------*/
 117:Drivers/STM32L0xx_HAL_Driver/Src/stm32l0xx_ll_rtc.c **** /* Exported functions --------------------------------------------------------*/
 118:Drivers/STM32L0xx_HAL_Driver/Src/stm32l0xx_ll_rtc.c **** /** @addtogroup RTC_LL_Exported_Functions
 119:Drivers/STM32L0xx_HAL_Driver/Src/stm32l0xx_ll_rtc.c ****   * @{
 120:Drivers/STM32L0xx_HAL_Driver/Src/stm32l0xx_ll_rtc.c ****   */
 121:Drivers/STM32L0xx_HAL_Driver/Src/stm32l0xx_ll_rtc.c **** 
 122:Drivers/STM32L0xx_HAL_Driver/Src/stm32l0xx_ll_rtc.c **** /** @addtogroup RTC_LL_EF_Init
 123:Drivers/STM32L0xx_HAL_Driver/Src/stm32l0xx_ll_rtc.c ****   * @{
 124:Drivers/STM32L0xx_HAL_Driver/Src/stm32l0xx_ll_rtc.c ****   */
 125:Drivers/STM32L0xx_HAL_Driver/Src/stm32l0xx_ll_rtc.c **** 
 126:Drivers/STM32L0xx_HAL_Driver/Src/stm32l0xx_ll_rtc.c **** /**
 127:Drivers/STM32L0xx_HAL_Driver/Src/stm32l0xx_ll_rtc.c ****   * @brief  De-Initializes the RTC registers to their default reset values.
 128:Drivers/STM32L0xx_HAL_Driver/Src/stm32l0xx_ll_rtc.c ****   * @note   This function does not reset the RTC Clock source and RTC Backup Data
 129:Drivers/STM32L0xx_HAL_Driver/Src/stm32l0xx_ll_rtc.c ****   *         registers.
 130:Drivers/STM32L0xx_HAL_Driver/Src/stm32l0xx_ll_rtc.c ****   * @param  RTCx RTC Instance
 131:Drivers/STM32L0xx_HAL_Driver/Src/stm32l0xx_ll_rtc.c ****   * @retval An ErrorStatus enumeration value:
 132:Drivers/STM32L0xx_HAL_Driver/Src/stm32l0xx_ll_rtc.c ****   *          - SUCCESS: RTC registers are de-initialized
 133:Drivers/STM32L0xx_HAL_Driver/Src/stm32l0xx_ll_rtc.c ****   *          - ERROR: RTC registers are not de-initialized
 134:Drivers/STM32L0xx_HAL_Driver/Src/stm32l0xx_ll_rtc.c ****   */
 135:Drivers/STM32L0xx_HAL_Driver/Src/stm32l0xx_ll_rtc.c **** ErrorStatus LL_RTC_DeInit(RTC_TypeDef *RTCx)
 136:Drivers/STM32L0xx_HAL_Driver/Src/stm32l0xx_ll_rtc.c **** {
 137:Drivers/STM32L0xx_HAL_Driver/Src/stm32l0xx_ll_rtc.c ****   ErrorStatus status = ERROR;
 138:Drivers/STM32L0xx_HAL_Driver/Src/stm32l0xx_ll_rtc.c **** 
 139:Drivers/STM32L0xx_HAL_Driver/Src/stm32l0xx_ll_rtc.c ****   /* Check the parameter */
 140:Drivers/STM32L0xx_HAL_Driver/Src/stm32l0xx_ll_rtc.c ****   assert_param(IS_RTC_ALL_INSTANCE(RTCx));
 141:Drivers/STM32L0xx_HAL_Driver/Src/stm32l0xx_ll_rtc.c **** 
 142:Drivers/STM32L0xx_HAL_Driver/Src/stm32l0xx_ll_rtc.c ****   /* Disable the write protection for RTC registers */
 143:Drivers/STM32L0xx_HAL_Driver/Src/stm32l0xx_ll_rtc.c ****   LL_RTC_DisableWriteProtection(RTCx);
 144:Drivers/STM32L0xx_HAL_Driver/Src/stm32l0xx_ll_rtc.c **** 
 145:Drivers/STM32L0xx_HAL_Driver/Src/stm32l0xx_ll_rtc.c ****   /* Set Initialization mode */
ARM GAS  C:\Users\Nathan\AppData\Local\Temp\ccAQTZu2.s 			page 4


 146:Drivers/STM32L0xx_HAL_Driver/Src/stm32l0xx_ll_rtc.c ****   if (LL_RTC_EnterInitMode(RTCx) != ERROR)
 147:Drivers/STM32L0xx_HAL_Driver/Src/stm32l0xx_ll_rtc.c ****   {
 148:Drivers/STM32L0xx_HAL_Driver/Src/stm32l0xx_ll_rtc.c ****     /* Reset TR, DR and CR registers */
 149:Drivers/STM32L0xx_HAL_Driver/Src/stm32l0xx_ll_rtc.c ****     LL_RTC_WriteReg(RTCx, TR,       0x00000000U);
 150:Drivers/STM32L0xx_HAL_Driver/Src/stm32l0xx_ll_rtc.c ****     LL_RTC_WriteReg(RTCx, WUTR,     RTC_WUTR_WUT);
 151:Drivers/STM32L0xx_HAL_Driver/Src/stm32l0xx_ll_rtc.c ****     LL_RTC_WriteReg(RTCx, DR,      (RTC_DR_WDU_0 | RTC_DR_MU_0 | RTC_DR_DU_0));
 152:Drivers/STM32L0xx_HAL_Driver/Src/stm32l0xx_ll_rtc.c **** 
 153:Drivers/STM32L0xx_HAL_Driver/Src/stm32l0xx_ll_rtc.c ****     /* Reset All CR bits except CR[2:0] */
 154:Drivers/STM32L0xx_HAL_Driver/Src/stm32l0xx_ll_rtc.c ****     LL_RTC_WriteReg(RTCx, CR, (LL_RTC_ReadReg(RTCx, CR) & RTC_CR_WUCKSEL));
 155:Drivers/STM32L0xx_HAL_Driver/Src/stm32l0xx_ll_rtc.c **** 
 156:Drivers/STM32L0xx_HAL_Driver/Src/stm32l0xx_ll_rtc.c ****     LL_RTC_WriteReg(RTCx, PRER,    (RTC_PRER_PREDIV_A | RTC_SYNCH_PRESC_DEFAULT));
 157:Drivers/STM32L0xx_HAL_Driver/Src/stm32l0xx_ll_rtc.c ****     LL_RTC_WriteReg(RTCx, ALRMAR,   0x00000000U);
 158:Drivers/STM32L0xx_HAL_Driver/Src/stm32l0xx_ll_rtc.c ****     LL_RTC_WriteReg(RTCx, ALRMBR,   0x00000000U);
 159:Drivers/STM32L0xx_HAL_Driver/Src/stm32l0xx_ll_rtc.c ****     LL_RTC_WriteReg(RTCx, CALR,     0x00000000U);
 160:Drivers/STM32L0xx_HAL_Driver/Src/stm32l0xx_ll_rtc.c ****     LL_RTC_WriteReg(RTCx, SHIFTR,   0x00000000U);
 161:Drivers/STM32L0xx_HAL_Driver/Src/stm32l0xx_ll_rtc.c ****     LL_RTC_WriteReg(RTCx, ALRMASSR, 0x00000000U);
 162:Drivers/STM32L0xx_HAL_Driver/Src/stm32l0xx_ll_rtc.c ****     LL_RTC_WriteReg(RTCx, ALRMBSSR, 0x00000000U);
 163:Drivers/STM32L0xx_HAL_Driver/Src/stm32l0xx_ll_rtc.c **** 
 164:Drivers/STM32L0xx_HAL_Driver/Src/stm32l0xx_ll_rtc.c ****     /* Reset ISR register and exit initialization mode */
 165:Drivers/STM32L0xx_HAL_Driver/Src/stm32l0xx_ll_rtc.c ****     LL_RTC_WriteReg(RTCx, ISR,      0x00000000U);
 166:Drivers/STM32L0xx_HAL_Driver/Src/stm32l0xx_ll_rtc.c **** 
 167:Drivers/STM32L0xx_HAL_Driver/Src/stm32l0xx_ll_rtc.c ****     /* Reset Tamper and alternate functions configuration register */
 168:Drivers/STM32L0xx_HAL_Driver/Src/stm32l0xx_ll_rtc.c ****     LL_RTC_WriteReg(RTCx, TAMPCR, 0x00000000U);
 169:Drivers/STM32L0xx_HAL_Driver/Src/stm32l0xx_ll_rtc.c **** 
 170:Drivers/STM32L0xx_HAL_Driver/Src/stm32l0xx_ll_rtc.c ****     /* Reset Option register */
 171:Drivers/STM32L0xx_HAL_Driver/Src/stm32l0xx_ll_rtc.c ****     LL_RTC_WriteReg(RTCx, OR, 0x00000000U);
 172:Drivers/STM32L0xx_HAL_Driver/Src/stm32l0xx_ll_rtc.c **** 
 173:Drivers/STM32L0xx_HAL_Driver/Src/stm32l0xx_ll_rtc.c ****     /* Wait till the RTC RSF flag is set */
 174:Drivers/STM32L0xx_HAL_Driver/Src/stm32l0xx_ll_rtc.c ****     status = LL_RTC_WaitForSynchro(RTCx);
 175:Drivers/STM32L0xx_HAL_Driver/Src/stm32l0xx_ll_rtc.c ****   }
 176:Drivers/STM32L0xx_HAL_Driver/Src/stm32l0xx_ll_rtc.c **** 
 177:Drivers/STM32L0xx_HAL_Driver/Src/stm32l0xx_ll_rtc.c ****   /* Enable the write protection for RTC registers */
 178:Drivers/STM32L0xx_HAL_Driver/Src/stm32l0xx_ll_rtc.c ****   LL_RTC_EnableWriteProtection(RTCx);
 179:Drivers/STM32L0xx_HAL_Driver/Src/stm32l0xx_ll_rtc.c **** 
 180:Drivers/STM32L0xx_HAL_Driver/Src/stm32l0xx_ll_rtc.c ****   return status;
 181:Drivers/STM32L0xx_HAL_Driver/Src/stm32l0xx_ll_rtc.c **** }
 182:Drivers/STM32L0xx_HAL_Driver/Src/stm32l0xx_ll_rtc.c **** 
 183:Drivers/STM32L0xx_HAL_Driver/Src/stm32l0xx_ll_rtc.c **** /**
 184:Drivers/STM32L0xx_HAL_Driver/Src/stm32l0xx_ll_rtc.c ****   * @brief  Initializes the RTC registers according to the specified parameters
 185:Drivers/STM32L0xx_HAL_Driver/Src/stm32l0xx_ll_rtc.c ****   *         in RTC_InitStruct.
 186:Drivers/STM32L0xx_HAL_Driver/Src/stm32l0xx_ll_rtc.c ****   * @param  RTCx RTC Instance
 187:Drivers/STM32L0xx_HAL_Driver/Src/stm32l0xx_ll_rtc.c ****   * @param  RTC_InitStruct pointer to a @ref LL_RTC_InitTypeDef structure that contains
 188:Drivers/STM32L0xx_HAL_Driver/Src/stm32l0xx_ll_rtc.c ****   *         the configuration information for the RTC peripheral.
 189:Drivers/STM32L0xx_HAL_Driver/Src/stm32l0xx_ll_rtc.c ****   * @note   The RTC Prescaler register is write protected and can be written in
 190:Drivers/STM32L0xx_HAL_Driver/Src/stm32l0xx_ll_rtc.c ****   *         initialization mode only.
 191:Drivers/STM32L0xx_HAL_Driver/Src/stm32l0xx_ll_rtc.c ****   * @retval An ErrorStatus enumeration value:
 192:Drivers/STM32L0xx_HAL_Driver/Src/stm32l0xx_ll_rtc.c ****   *          - SUCCESS: RTC registers are initialized
 193:Drivers/STM32L0xx_HAL_Driver/Src/stm32l0xx_ll_rtc.c ****   *          - ERROR: RTC registers are not initialized
 194:Drivers/STM32L0xx_HAL_Driver/Src/stm32l0xx_ll_rtc.c ****   */
 195:Drivers/STM32L0xx_HAL_Driver/Src/stm32l0xx_ll_rtc.c **** ErrorStatus LL_RTC_Init(RTC_TypeDef *RTCx, LL_RTC_InitTypeDef *RTC_InitStruct)
 196:Drivers/STM32L0xx_HAL_Driver/Src/stm32l0xx_ll_rtc.c **** {
 197:Drivers/STM32L0xx_HAL_Driver/Src/stm32l0xx_ll_rtc.c ****   ErrorStatus status = ERROR;
 198:Drivers/STM32L0xx_HAL_Driver/Src/stm32l0xx_ll_rtc.c **** 
 199:Drivers/STM32L0xx_HAL_Driver/Src/stm32l0xx_ll_rtc.c ****   /* Check the parameters */
 200:Drivers/STM32L0xx_HAL_Driver/Src/stm32l0xx_ll_rtc.c ****   assert_param(IS_RTC_ALL_INSTANCE(RTCx));
 201:Drivers/STM32L0xx_HAL_Driver/Src/stm32l0xx_ll_rtc.c ****   assert_param(IS_LL_RTC_HOURFORMAT(RTC_InitStruct->HourFormat));
 202:Drivers/STM32L0xx_HAL_Driver/Src/stm32l0xx_ll_rtc.c ****   assert_param(IS_LL_RTC_ASYNCH_PREDIV(RTC_InitStruct->AsynchPrescaler));
ARM GAS  C:\Users\Nathan\AppData\Local\Temp\ccAQTZu2.s 			page 5


 203:Drivers/STM32L0xx_HAL_Driver/Src/stm32l0xx_ll_rtc.c ****   assert_param(IS_LL_RTC_SYNCH_PREDIV(RTC_InitStruct->SynchPrescaler));
 204:Drivers/STM32L0xx_HAL_Driver/Src/stm32l0xx_ll_rtc.c **** 
 205:Drivers/STM32L0xx_HAL_Driver/Src/stm32l0xx_ll_rtc.c ****   /* Disable the write protection for RTC registers */
 206:Drivers/STM32L0xx_HAL_Driver/Src/stm32l0xx_ll_rtc.c ****   LL_RTC_DisableWriteProtection(RTCx);
 207:Drivers/STM32L0xx_HAL_Driver/Src/stm32l0xx_ll_rtc.c **** 
 208:Drivers/STM32L0xx_HAL_Driver/Src/stm32l0xx_ll_rtc.c ****   /* Set Initialization mode */
 209:Drivers/STM32L0xx_HAL_Driver/Src/stm32l0xx_ll_rtc.c ****   if (LL_RTC_EnterInitMode(RTCx) != ERROR)
 210:Drivers/STM32L0xx_HAL_Driver/Src/stm32l0xx_ll_rtc.c ****   {
 211:Drivers/STM32L0xx_HAL_Driver/Src/stm32l0xx_ll_rtc.c ****     /* Set Hour Format */
 212:Drivers/STM32L0xx_HAL_Driver/Src/stm32l0xx_ll_rtc.c ****     LL_RTC_SetHourFormat(RTCx, RTC_InitStruct->HourFormat);
 213:Drivers/STM32L0xx_HAL_Driver/Src/stm32l0xx_ll_rtc.c **** 
 214:Drivers/STM32L0xx_HAL_Driver/Src/stm32l0xx_ll_rtc.c ****     /* Configure Synchronous and Asynchronous prescaler factor */
 215:Drivers/STM32L0xx_HAL_Driver/Src/stm32l0xx_ll_rtc.c ****     LL_RTC_SetSynchPrescaler(RTCx, RTC_InitStruct->SynchPrescaler);
 216:Drivers/STM32L0xx_HAL_Driver/Src/stm32l0xx_ll_rtc.c ****     LL_RTC_SetAsynchPrescaler(RTCx, RTC_InitStruct->AsynchPrescaler);
 217:Drivers/STM32L0xx_HAL_Driver/Src/stm32l0xx_ll_rtc.c **** 
 218:Drivers/STM32L0xx_HAL_Driver/Src/stm32l0xx_ll_rtc.c ****     /* Exit Initialization mode */
 219:Drivers/STM32L0xx_HAL_Driver/Src/stm32l0xx_ll_rtc.c ****     LL_RTC_DisableInitMode(RTCx);
 220:Drivers/STM32L0xx_HAL_Driver/Src/stm32l0xx_ll_rtc.c **** 
 221:Drivers/STM32L0xx_HAL_Driver/Src/stm32l0xx_ll_rtc.c ****     status = SUCCESS;
 222:Drivers/STM32L0xx_HAL_Driver/Src/stm32l0xx_ll_rtc.c ****   }
 223:Drivers/STM32L0xx_HAL_Driver/Src/stm32l0xx_ll_rtc.c ****   /* Enable the write protection for RTC registers */
 224:Drivers/STM32L0xx_HAL_Driver/Src/stm32l0xx_ll_rtc.c ****   LL_RTC_EnableWriteProtection(RTCx);
 225:Drivers/STM32L0xx_HAL_Driver/Src/stm32l0xx_ll_rtc.c **** 
 226:Drivers/STM32L0xx_HAL_Driver/Src/stm32l0xx_ll_rtc.c ****   return status;
 227:Drivers/STM32L0xx_HAL_Driver/Src/stm32l0xx_ll_rtc.c **** }
 228:Drivers/STM32L0xx_HAL_Driver/Src/stm32l0xx_ll_rtc.c **** 
 229:Drivers/STM32L0xx_HAL_Driver/Src/stm32l0xx_ll_rtc.c **** /**
 230:Drivers/STM32L0xx_HAL_Driver/Src/stm32l0xx_ll_rtc.c ****   * @brief  Set each @ref LL_RTC_InitTypeDef field to default value.
 231:Drivers/STM32L0xx_HAL_Driver/Src/stm32l0xx_ll_rtc.c ****   * @param  RTC_InitStruct pointer to a @ref LL_RTC_InitTypeDef structure which will be initialized
 232:Drivers/STM32L0xx_HAL_Driver/Src/stm32l0xx_ll_rtc.c ****   * @retval None
 233:Drivers/STM32L0xx_HAL_Driver/Src/stm32l0xx_ll_rtc.c ****   */
 234:Drivers/STM32L0xx_HAL_Driver/Src/stm32l0xx_ll_rtc.c **** void LL_RTC_StructInit(LL_RTC_InitTypeDef *RTC_InitStruct)
 235:Drivers/STM32L0xx_HAL_Driver/Src/stm32l0xx_ll_rtc.c **** {
  28              		.loc 1 235 1 view -0
  29              		.cfi_startproc
  30              		@ args = 0, pretend = 0, frame = 0
  31              		@ frame_needed = 0, uses_anonymous_args = 0
  32              		@ link register save eliminated.
 236:Drivers/STM32L0xx_HAL_Driver/Src/stm32l0xx_ll_rtc.c ****   /* Set RTC_InitStruct fields to default values */
 237:Drivers/STM32L0xx_HAL_Driver/Src/stm32l0xx_ll_rtc.c ****   RTC_InitStruct->HourFormat      = LL_RTC_HOURFORMAT_24HOUR;
  33              		.loc 1 237 3 view .LVU1
  34              		.loc 1 237 35 is_stmt 0 view .LVU2
  35 0000 0023     		movs	r3, #0
  36 0002 0360     		str	r3, [r0]
 238:Drivers/STM32L0xx_HAL_Driver/Src/stm32l0xx_ll_rtc.c ****   RTC_InitStruct->AsynchPrescaler = RTC_ASYNCH_PRESC_DEFAULT;
  37              		.loc 1 238 3 is_stmt 1 view .LVU3
  38              		.loc 1 238 35 is_stmt 0 view .LVU4
  39 0004 7F33     		adds	r3, r3, #127
  40 0006 4360     		str	r3, [r0, #4]
 239:Drivers/STM32L0xx_HAL_Driver/Src/stm32l0xx_ll_rtc.c ****   RTC_InitStruct->SynchPrescaler  = RTC_SYNCH_PRESC_DEFAULT;
  41              		.loc 1 239 3 is_stmt 1 view .LVU5
  42              		.loc 1 239 35 is_stmt 0 view .LVU6
  43 0008 8033     		adds	r3, r3, #128
  44 000a 8360     		str	r3, [r0, #8]
 240:Drivers/STM32L0xx_HAL_Driver/Src/stm32l0xx_ll_rtc.c **** }
  45              		.loc 1 240 1 view .LVU7
  46              		@ sp needed
ARM GAS  C:\Users\Nathan\AppData\Local\Temp\ccAQTZu2.s 			page 6


  47 000c 7047     		bx	lr
  48              		.cfi_endproc
  49              	.LFE263:
  51              		.section	.text.LL_RTC_TIME_StructInit,"ax",%progbits
  52              		.align	1
  53              		.global	LL_RTC_TIME_StructInit
  54              		.syntax unified
  55              		.code	16
  56              		.thumb_func
  58              	LL_RTC_TIME_StructInit:
  59              	.LVL1:
  60              	.LFB265:
 241:Drivers/STM32L0xx_HAL_Driver/Src/stm32l0xx_ll_rtc.c **** 
 242:Drivers/STM32L0xx_HAL_Driver/Src/stm32l0xx_ll_rtc.c **** /**
 243:Drivers/STM32L0xx_HAL_Driver/Src/stm32l0xx_ll_rtc.c ****   * @brief  Set the RTC current time.
 244:Drivers/STM32L0xx_HAL_Driver/Src/stm32l0xx_ll_rtc.c ****   * @param  RTCx RTC Instance
 245:Drivers/STM32L0xx_HAL_Driver/Src/stm32l0xx_ll_rtc.c ****   * @param  RTC_Format This parameter can be one of the following values:
 246:Drivers/STM32L0xx_HAL_Driver/Src/stm32l0xx_ll_rtc.c ****   *         @arg @ref LL_RTC_FORMAT_BIN
 247:Drivers/STM32L0xx_HAL_Driver/Src/stm32l0xx_ll_rtc.c ****   *         @arg @ref LL_RTC_FORMAT_BCD
 248:Drivers/STM32L0xx_HAL_Driver/Src/stm32l0xx_ll_rtc.c ****   * @param  RTC_TimeStruct pointer to a RTC_TimeTypeDef structure that contains
 249:Drivers/STM32L0xx_HAL_Driver/Src/stm32l0xx_ll_rtc.c ****   *                        the time configuration information for the RTC.
 250:Drivers/STM32L0xx_HAL_Driver/Src/stm32l0xx_ll_rtc.c ****   * @retval An ErrorStatus enumeration value:
 251:Drivers/STM32L0xx_HAL_Driver/Src/stm32l0xx_ll_rtc.c ****   *          - SUCCESS: RTC Time register is configured
 252:Drivers/STM32L0xx_HAL_Driver/Src/stm32l0xx_ll_rtc.c ****   *          - ERROR: RTC Time register is not configured
 253:Drivers/STM32L0xx_HAL_Driver/Src/stm32l0xx_ll_rtc.c ****   */
 254:Drivers/STM32L0xx_HAL_Driver/Src/stm32l0xx_ll_rtc.c **** ErrorStatus LL_RTC_TIME_Init(RTC_TypeDef *RTCx, uint32_t RTC_Format, LL_RTC_TimeTypeDef *RTC_TimeSt
 255:Drivers/STM32L0xx_HAL_Driver/Src/stm32l0xx_ll_rtc.c **** {
 256:Drivers/STM32L0xx_HAL_Driver/Src/stm32l0xx_ll_rtc.c ****   ErrorStatus status = ERROR;
 257:Drivers/STM32L0xx_HAL_Driver/Src/stm32l0xx_ll_rtc.c **** 
 258:Drivers/STM32L0xx_HAL_Driver/Src/stm32l0xx_ll_rtc.c ****   /* Check the parameters */
 259:Drivers/STM32L0xx_HAL_Driver/Src/stm32l0xx_ll_rtc.c ****   assert_param(IS_RTC_ALL_INSTANCE(RTCx));
 260:Drivers/STM32L0xx_HAL_Driver/Src/stm32l0xx_ll_rtc.c ****   assert_param(IS_LL_RTC_FORMAT(RTC_Format));
 261:Drivers/STM32L0xx_HAL_Driver/Src/stm32l0xx_ll_rtc.c **** 
 262:Drivers/STM32L0xx_HAL_Driver/Src/stm32l0xx_ll_rtc.c ****   if (RTC_Format == LL_RTC_FORMAT_BIN)
 263:Drivers/STM32L0xx_HAL_Driver/Src/stm32l0xx_ll_rtc.c ****   {
 264:Drivers/STM32L0xx_HAL_Driver/Src/stm32l0xx_ll_rtc.c ****     if (LL_RTC_GetHourFormat(RTCx) != LL_RTC_HOURFORMAT_24HOUR)
 265:Drivers/STM32L0xx_HAL_Driver/Src/stm32l0xx_ll_rtc.c ****     {
 266:Drivers/STM32L0xx_HAL_Driver/Src/stm32l0xx_ll_rtc.c ****       assert_param(IS_LL_RTC_HOUR12(RTC_TimeStruct->Hours));
 267:Drivers/STM32L0xx_HAL_Driver/Src/stm32l0xx_ll_rtc.c ****       assert_param(IS_LL_RTC_TIME_FORMAT(RTC_TimeStruct->TimeFormat));
 268:Drivers/STM32L0xx_HAL_Driver/Src/stm32l0xx_ll_rtc.c ****     }
 269:Drivers/STM32L0xx_HAL_Driver/Src/stm32l0xx_ll_rtc.c ****     else
 270:Drivers/STM32L0xx_HAL_Driver/Src/stm32l0xx_ll_rtc.c ****     {
 271:Drivers/STM32L0xx_HAL_Driver/Src/stm32l0xx_ll_rtc.c ****       RTC_TimeStruct->TimeFormat = 0x00U;
 272:Drivers/STM32L0xx_HAL_Driver/Src/stm32l0xx_ll_rtc.c ****       assert_param(IS_LL_RTC_HOUR24(RTC_TimeStruct->Hours));
 273:Drivers/STM32L0xx_HAL_Driver/Src/stm32l0xx_ll_rtc.c ****     }
 274:Drivers/STM32L0xx_HAL_Driver/Src/stm32l0xx_ll_rtc.c ****     assert_param(IS_LL_RTC_MINUTES(RTC_TimeStruct->Minutes));
 275:Drivers/STM32L0xx_HAL_Driver/Src/stm32l0xx_ll_rtc.c ****     assert_param(IS_LL_RTC_SECONDS(RTC_TimeStruct->Seconds));
 276:Drivers/STM32L0xx_HAL_Driver/Src/stm32l0xx_ll_rtc.c ****   }
 277:Drivers/STM32L0xx_HAL_Driver/Src/stm32l0xx_ll_rtc.c ****   else
 278:Drivers/STM32L0xx_HAL_Driver/Src/stm32l0xx_ll_rtc.c ****   {
 279:Drivers/STM32L0xx_HAL_Driver/Src/stm32l0xx_ll_rtc.c ****     if (LL_RTC_GetHourFormat(RTCx) != LL_RTC_HOURFORMAT_24HOUR)
 280:Drivers/STM32L0xx_HAL_Driver/Src/stm32l0xx_ll_rtc.c ****     {
 281:Drivers/STM32L0xx_HAL_Driver/Src/stm32l0xx_ll_rtc.c ****       assert_param(IS_LL_RTC_HOUR12(__LL_RTC_CONVERT_BCD2BIN(RTC_TimeStruct->Hours)));
 282:Drivers/STM32L0xx_HAL_Driver/Src/stm32l0xx_ll_rtc.c ****       assert_param(IS_LL_RTC_TIME_FORMAT(RTC_TimeStruct->TimeFormat));
 283:Drivers/STM32L0xx_HAL_Driver/Src/stm32l0xx_ll_rtc.c ****     }
 284:Drivers/STM32L0xx_HAL_Driver/Src/stm32l0xx_ll_rtc.c ****     else
 285:Drivers/STM32L0xx_HAL_Driver/Src/stm32l0xx_ll_rtc.c ****     {
ARM GAS  C:\Users\Nathan\AppData\Local\Temp\ccAQTZu2.s 			page 7


 286:Drivers/STM32L0xx_HAL_Driver/Src/stm32l0xx_ll_rtc.c ****       RTC_TimeStruct->TimeFormat = 0x00U;
 287:Drivers/STM32L0xx_HAL_Driver/Src/stm32l0xx_ll_rtc.c ****       assert_param(IS_LL_RTC_HOUR24(__LL_RTC_CONVERT_BCD2BIN(RTC_TimeStruct->Hours)));
 288:Drivers/STM32L0xx_HAL_Driver/Src/stm32l0xx_ll_rtc.c ****     }
 289:Drivers/STM32L0xx_HAL_Driver/Src/stm32l0xx_ll_rtc.c ****     assert_param(IS_LL_RTC_MINUTES(__LL_RTC_CONVERT_BCD2BIN(RTC_TimeStruct->Minutes)));
 290:Drivers/STM32L0xx_HAL_Driver/Src/stm32l0xx_ll_rtc.c ****     assert_param(IS_LL_RTC_SECONDS(__LL_RTC_CONVERT_BCD2BIN(RTC_TimeStruct->Seconds)));
 291:Drivers/STM32L0xx_HAL_Driver/Src/stm32l0xx_ll_rtc.c ****   }
 292:Drivers/STM32L0xx_HAL_Driver/Src/stm32l0xx_ll_rtc.c **** 
 293:Drivers/STM32L0xx_HAL_Driver/Src/stm32l0xx_ll_rtc.c ****   /* Disable the write protection for RTC registers */
 294:Drivers/STM32L0xx_HAL_Driver/Src/stm32l0xx_ll_rtc.c ****   LL_RTC_DisableWriteProtection(RTCx);
 295:Drivers/STM32L0xx_HAL_Driver/Src/stm32l0xx_ll_rtc.c **** 
 296:Drivers/STM32L0xx_HAL_Driver/Src/stm32l0xx_ll_rtc.c ****   /* Set Initialization mode */
 297:Drivers/STM32L0xx_HAL_Driver/Src/stm32l0xx_ll_rtc.c ****   if (LL_RTC_EnterInitMode(RTCx) != ERROR)
 298:Drivers/STM32L0xx_HAL_Driver/Src/stm32l0xx_ll_rtc.c ****   {
 299:Drivers/STM32L0xx_HAL_Driver/Src/stm32l0xx_ll_rtc.c ****     /* Check the input parameters format */
 300:Drivers/STM32L0xx_HAL_Driver/Src/stm32l0xx_ll_rtc.c ****     if (RTC_Format != LL_RTC_FORMAT_BIN)
 301:Drivers/STM32L0xx_HAL_Driver/Src/stm32l0xx_ll_rtc.c ****     {
 302:Drivers/STM32L0xx_HAL_Driver/Src/stm32l0xx_ll_rtc.c ****       LL_RTC_TIME_Config(RTCx, RTC_TimeStruct->TimeFormat, RTC_TimeStruct->Hours,
 303:Drivers/STM32L0xx_HAL_Driver/Src/stm32l0xx_ll_rtc.c ****                          RTC_TimeStruct->Minutes, RTC_TimeStruct->Seconds);
 304:Drivers/STM32L0xx_HAL_Driver/Src/stm32l0xx_ll_rtc.c ****     }
 305:Drivers/STM32L0xx_HAL_Driver/Src/stm32l0xx_ll_rtc.c ****     else
 306:Drivers/STM32L0xx_HAL_Driver/Src/stm32l0xx_ll_rtc.c ****     {
 307:Drivers/STM32L0xx_HAL_Driver/Src/stm32l0xx_ll_rtc.c ****       LL_RTC_TIME_Config(RTCx, RTC_TimeStruct->TimeFormat, __LL_RTC_CONVERT_BIN2BCD(RTC_TimeStruct-
 308:Drivers/STM32L0xx_HAL_Driver/Src/stm32l0xx_ll_rtc.c ****                          __LL_RTC_CONVERT_BIN2BCD(RTC_TimeStruct->Minutes),
 309:Drivers/STM32L0xx_HAL_Driver/Src/stm32l0xx_ll_rtc.c ****                          __LL_RTC_CONVERT_BIN2BCD(RTC_TimeStruct->Seconds));
 310:Drivers/STM32L0xx_HAL_Driver/Src/stm32l0xx_ll_rtc.c ****     }
 311:Drivers/STM32L0xx_HAL_Driver/Src/stm32l0xx_ll_rtc.c **** 
 312:Drivers/STM32L0xx_HAL_Driver/Src/stm32l0xx_ll_rtc.c ****     /* Exit Initialization mode */
 313:Drivers/STM32L0xx_HAL_Driver/Src/stm32l0xx_ll_rtc.c ****     LL_RTC_DisableInitMode(RTCx);
 314:Drivers/STM32L0xx_HAL_Driver/Src/stm32l0xx_ll_rtc.c **** 
 315:Drivers/STM32L0xx_HAL_Driver/Src/stm32l0xx_ll_rtc.c ****     /* If  RTC_CR_BYPSHAD bit = 0, wait for synchro else this check is not needed */
 316:Drivers/STM32L0xx_HAL_Driver/Src/stm32l0xx_ll_rtc.c ****     if (LL_RTC_IsShadowRegBypassEnabled(RTCx) == 0U)
 317:Drivers/STM32L0xx_HAL_Driver/Src/stm32l0xx_ll_rtc.c ****     {
 318:Drivers/STM32L0xx_HAL_Driver/Src/stm32l0xx_ll_rtc.c ****       status = LL_RTC_WaitForSynchro(RTCx);
 319:Drivers/STM32L0xx_HAL_Driver/Src/stm32l0xx_ll_rtc.c ****     }
 320:Drivers/STM32L0xx_HAL_Driver/Src/stm32l0xx_ll_rtc.c ****     else
 321:Drivers/STM32L0xx_HAL_Driver/Src/stm32l0xx_ll_rtc.c ****     {
 322:Drivers/STM32L0xx_HAL_Driver/Src/stm32l0xx_ll_rtc.c ****       status = SUCCESS;
 323:Drivers/STM32L0xx_HAL_Driver/Src/stm32l0xx_ll_rtc.c ****     }
 324:Drivers/STM32L0xx_HAL_Driver/Src/stm32l0xx_ll_rtc.c ****   }
 325:Drivers/STM32L0xx_HAL_Driver/Src/stm32l0xx_ll_rtc.c ****   /* Enable the write protection for RTC registers */
 326:Drivers/STM32L0xx_HAL_Driver/Src/stm32l0xx_ll_rtc.c ****   LL_RTC_EnableWriteProtection(RTCx);
 327:Drivers/STM32L0xx_HAL_Driver/Src/stm32l0xx_ll_rtc.c **** 
 328:Drivers/STM32L0xx_HAL_Driver/Src/stm32l0xx_ll_rtc.c ****   return status;
 329:Drivers/STM32L0xx_HAL_Driver/Src/stm32l0xx_ll_rtc.c **** }
 330:Drivers/STM32L0xx_HAL_Driver/Src/stm32l0xx_ll_rtc.c **** 
 331:Drivers/STM32L0xx_HAL_Driver/Src/stm32l0xx_ll_rtc.c **** /**
 332:Drivers/STM32L0xx_HAL_Driver/Src/stm32l0xx_ll_rtc.c ****   * @brief  Set each @ref LL_RTC_TimeTypeDef field to default value (Time = 00h:00min:00sec).
 333:Drivers/STM32L0xx_HAL_Driver/Src/stm32l0xx_ll_rtc.c ****   * @param  RTC_TimeStruct pointer to a @ref LL_RTC_TimeTypeDef structure which will be initialized
 334:Drivers/STM32L0xx_HAL_Driver/Src/stm32l0xx_ll_rtc.c ****   * @retval None
 335:Drivers/STM32L0xx_HAL_Driver/Src/stm32l0xx_ll_rtc.c ****   */
 336:Drivers/STM32L0xx_HAL_Driver/Src/stm32l0xx_ll_rtc.c **** void LL_RTC_TIME_StructInit(LL_RTC_TimeTypeDef *RTC_TimeStruct)
 337:Drivers/STM32L0xx_HAL_Driver/Src/stm32l0xx_ll_rtc.c **** {
  61              		.loc 1 337 1 is_stmt 1 view -0
  62              		.cfi_startproc
  63              		@ args = 0, pretend = 0, frame = 0
  64              		@ frame_needed = 0, uses_anonymous_args = 0
  65              		@ link register save eliminated.
ARM GAS  C:\Users\Nathan\AppData\Local\Temp\ccAQTZu2.s 			page 8


 338:Drivers/STM32L0xx_HAL_Driver/Src/stm32l0xx_ll_rtc.c ****   /* Time = 00h:00min:00sec */
 339:Drivers/STM32L0xx_HAL_Driver/Src/stm32l0xx_ll_rtc.c ****   RTC_TimeStruct->TimeFormat = LL_RTC_TIME_FORMAT_AM_OR_24;
  66              		.loc 1 339 3 view .LVU9
  67              		.loc 1 339 30 is_stmt 0 view .LVU10
  68 0000 0023     		movs	r3, #0
  69 0002 0360     		str	r3, [r0]
 340:Drivers/STM32L0xx_HAL_Driver/Src/stm32l0xx_ll_rtc.c ****   RTC_TimeStruct->Hours      = 0U;
  70              		.loc 1 340 3 is_stmt 1 view .LVU11
  71              		.loc 1 340 30 is_stmt 0 view .LVU12
  72 0004 0371     		strb	r3, [r0, #4]
 341:Drivers/STM32L0xx_HAL_Driver/Src/stm32l0xx_ll_rtc.c ****   RTC_TimeStruct->Minutes    = 0U;
  73              		.loc 1 341 3 is_stmt 1 view .LVU13
  74              		.loc 1 341 30 is_stmt 0 view .LVU14
  75 0006 4371     		strb	r3, [r0, #5]
 342:Drivers/STM32L0xx_HAL_Driver/Src/stm32l0xx_ll_rtc.c ****   RTC_TimeStruct->Seconds    = 0U;
  76              		.loc 1 342 3 is_stmt 1 view .LVU15
  77              		.loc 1 342 30 is_stmt 0 view .LVU16
  78 0008 8371     		strb	r3, [r0, #6]
 343:Drivers/STM32L0xx_HAL_Driver/Src/stm32l0xx_ll_rtc.c **** }
  79              		.loc 1 343 1 view .LVU17
  80              		@ sp needed
  81 000a 7047     		bx	lr
  82              		.cfi_endproc
  83              	.LFE265:
  85              		.section	.text.LL_RTC_DATE_StructInit,"ax",%progbits
  86              		.align	1
  87              		.global	LL_RTC_DATE_StructInit
  88              		.syntax unified
  89              		.code	16
  90              		.thumb_func
  92              	LL_RTC_DATE_StructInit:
  93              	.LVL2:
  94              	.LFB267:
 344:Drivers/STM32L0xx_HAL_Driver/Src/stm32l0xx_ll_rtc.c **** 
 345:Drivers/STM32L0xx_HAL_Driver/Src/stm32l0xx_ll_rtc.c **** /**
 346:Drivers/STM32L0xx_HAL_Driver/Src/stm32l0xx_ll_rtc.c ****   * @brief  Set the RTC current date.
 347:Drivers/STM32L0xx_HAL_Driver/Src/stm32l0xx_ll_rtc.c ****   * @param  RTCx RTC Instance
 348:Drivers/STM32L0xx_HAL_Driver/Src/stm32l0xx_ll_rtc.c ****   * @param  RTC_Format This parameter can be one of the following values:
 349:Drivers/STM32L0xx_HAL_Driver/Src/stm32l0xx_ll_rtc.c ****   *         @arg @ref LL_RTC_FORMAT_BIN
 350:Drivers/STM32L0xx_HAL_Driver/Src/stm32l0xx_ll_rtc.c ****   *         @arg @ref LL_RTC_FORMAT_BCD
 351:Drivers/STM32L0xx_HAL_Driver/Src/stm32l0xx_ll_rtc.c ****   * @param  RTC_DateStruct pointer to a RTC_DateTypeDef structure that contains
 352:Drivers/STM32L0xx_HAL_Driver/Src/stm32l0xx_ll_rtc.c ****   *                         the date configuration information for the RTC.
 353:Drivers/STM32L0xx_HAL_Driver/Src/stm32l0xx_ll_rtc.c ****   * @retval An ErrorStatus enumeration value:
 354:Drivers/STM32L0xx_HAL_Driver/Src/stm32l0xx_ll_rtc.c ****   *          - SUCCESS: RTC Day register is configured
 355:Drivers/STM32L0xx_HAL_Driver/Src/stm32l0xx_ll_rtc.c ****   *          - ERROR: RTC Day register is not configured
 356:Drivers/STM32L0xx_HAL_Driver/Src/stm32l0xx_ll_rtc.c ****   */
 357:Drivers/STM32L0xx_HAL_Driver/Src/stm32l0xx_ll_rtc.c **** ErrorStatus LL_RTC_DATE_Init(RTC_TypeDef *RTCx, uint32_t RTC_Format, LL_RTC_DateTypeDef *RTC_DateSt
 358:Drivers/STM32L0xx_HAL_Driver/Src/stm32l0xx_ll_rtc.c **** {
 359:Drivers/STM32L0xx_HAL_Driver/Src/stm32l0xx_ll_rtc.c ****   ErrorStatus status = ERROR;
 360:Drivers/STM32L0xx_HAL_Driver/Src/stm32l0xx_ll_rtc.c **** 
 361:Drivers/STM32L0xx_HAL_Driver/Src/stm32l0xx_ll_rtc.c ****   /* Check the parameters */
 362:Drivers/STM32L0xx_HAL_Driver/Src/stm32l0xx_ll_rtc.c ****   assert_param(IS_RTC_ALL_INSTANCE(RTCx));
 363:Drivers/STM32L0xx_HAL_Driver/Src/stm32l0xx_ll_rtc.c ****   assert_param(IS_LL_RTC_FORMAT(RTC_Format));
 364:Drivers/STM32L0xx_HAL_Driver/Src/stm32l0xx_ll_rtc.c **** 
 365:Drivers/STM32L0xx_HAL_Driver/Src/stm32l0xx_ll_rtc.c ****   if ((RTC_Format == LL_RTC_FORMAT_BIN) && ((RTC_DateStruct->Month & 0x10U) == 0x10U))
 366:Drivers/STM32L0xx_HAL_Driver/Src/stm32l0xx_ll_rtc.c ****   {
 367:Drivers/STM32L0xx_HAL_Driver/Src/stm32l0xx_ll_rtc.c ****     RTC_DateStruct->Month = (uint8_t)(RTC_DateStruct->Month & (uint8_t)~(0x10U)) + 0x0AU;
ARM GAS  C:\Users\Nathan\AppData\Local\Temp\ccAQTZu2.s 			page 9


 368:Drivers/STM32L0xx_HAL_Driver/Src/stm32l0xx_ll_rtc.c ****   }
 369:Drivers/STM32L0xx_HAL_Driver/Src/stm32l0xx_ll_rtc.c ****   if (RTC_Format == LL_RTC_FORMAT_BIN)
 370:Drivers/STM32L0xx_HAL_Driver/Src/stm32l0xx_ll_rtc.c ****   {
 371:Drivers/STM32L0xx_HAL_Driver/Src/stm32l0xx_ll_rtc.c ****     assert_param(IS_LL_RTC_YEAR(RTC_DateStruct->Year));
 372:Drivers/STM32L0xx_HAL_Driver/Src/stm32l0xx_ll_rtc.c ****     assert_param(IS_LL_RTC_MONTH(RTC_DateStruct->Month));
 373:Drivers/STM32L0xx_HAL_Driver/Src/stm32l0xx_ll_rtc.c ****     assert_param(IS_LL_RTC_DAY(RTC_DateStruct->Day));
 374:Drivers/STM32L0xx_HAL_Driver/Src/stm32l0xx_ll_rtc.c ****   }
 375:Drivers/STM32L0xx_HAL_Driver/Src/stm32l0xx_ll_rtc.c ****   else
 376:Drivers/STM32L0xx_HAL_Driver/Src/stm32l0xx_ll_rtc.c ****   {
 377:Drivers/STM32L0xx_HAL_Driver/Src/stm32l0xx_ll_rtc.c ****     assert_param(IS_LL_RTC_YEAR(__LL_RTC_CONVERT_BCD2BIN(RTC_DateStruct->Year)));
 378:Drivers/STM32L0xx_HAL_Driver/Src/stm32l0xx_ll_rtc.c ****     assert_param(IS_LL_RTC_MONTH(__LL_RTC_CONVERT_BCD2BIN(RTC_DateStruct->Month)));
 379:Drivers/STM32L0xx_HAL_Driver/Src/stm32l0xx_ll_rtc.c ****     assert_param(IS_LL_RTC_DAY(__LL_RTC_CONVERT_BCD2BIN(RTC_DateStruct->Day)));
 380:Drivers/STM32L0xx_HAL_Driver/Src/stm32l0xx_ll_rtc.c ****   }
 381:Drivers/STM32L0xx_HAL_Driver/Src/stm32l0xx_ll_rtc.c ****   assert_param(IS_LL_RTC_WEEKDAY(RTC_DateStruct->WeekDay));
 382:Drivers/STM32L0xx_HAL_Driver/Src/stm32l0xx_ll_rtc.c **** 
 383:Drivers/STM32L0xx_HAL_Driver/Src/stm32l0xx_ll_rtc.c ****   /* Disable the write protection for RTC registers */
 384:Drivers/STM32L0xx_HAL_Driver/Src/stm32l0xx_ll_rtc.c ****   LL_RTC_DisableWriteProtection(RTCx);
 385:Drivers/STM32L0xx_HAL_Driver/Src/stm32l0xx_ll_rtc.c **** 
 386:Drivers/STM32L0xx_HAL_Driver/Src/stm32l0xx_ll_rtc.c ****   /* Set Initialization mode */
 387:Drivers/STM32L0xx_HAL_Driver/Src/stm32l0xx_ll_rtc.c ****   if (LL_RTC_EnterInitMode(RTCx) != ERROR)
 388:Drivers/STM32L0xx_HAL_Driver/Src/stm32l0xx_ll_rtc.c ****   {
 389:Drivers/STM32L0xx_HAL_Driver/Src/stm32l0xx_ll_rtc.c ****     /* Check the input parameters format */
 390:Drivers/STM32L0xx_HAL_Driver/Src/stm32l0xx_ll_rtc.c ****     if (RTC_Format != LL_RTC_FORMAT_BIN)
 391:Drivers/STM32L0xx_HAL_Driver/Src/stm32l0xx_ll_rtc.c ****     {
 392:Drivers/STM32L0xx_HAL_Driver/Src/stm32l0xx_ll_rtc.c ****       LL_RTC_DATE_Config(RTCx, RTC_DateStruct->WeekDay, RTC_DateStruct->Day, RTC_DateStruct->Month,
 393:Drivers/STM32L0xx_HAL_Driver/Src/stm32l0xx_ll_rtc.c ****     }
 394:Drivers/STM32L0xx_HAL_Driver/Src/stm32l0xx_ll_rtc.c ****     else
 395:Drivers/STM32L0xx_HAL_Driver/Src/stm32l0xx_ll_rtc.c ****     {
 396:Drivers/STM32L0xx_HAL_Driver/Src/stm32l0xx_ll_rtc.c ****       LL_RTC_DATE_Config(RTCx, RTC_DateStruct->WeekDay, __LL_RTC_CONVERT_BIN2BCD(RTC_DateStruct->Da
 397:Drivers/STM32L0xx_HAL_Driver/Src/stm32l0xx_ll_rtc.c ****                          __LL_RTC_CONVERT_BIN2BCD(RTC_DateStruct->Month), __LL_RTC_CONVERT_BIN2BCD(
 398:Drivers/STM32L0xx_HAL_Driver/Src/stm32l0xx_ll_rtc.c ****     }
 399:Drivers/STM32L0xx_HAL_Driver/Src/stm32l0xx_ll_rtc.c **** 
 400:Drivers/STM32L0xx_HAL_Driver/Src/stm32l0xx_ll_rtc.c ****     /* Exit Initialization mode */
 401:Drivers/STM32L0xx_HAL_Driver/Src/stm32l0xx_ll_rtc.c ****     LL_RTC_DisableInitMode(RTCx);
 402:Drivers/STM32L0xx_HAL_Driver/Src/stm32l0xx_ll_rtc.c **** 
 403:Drivers/STM32L0xx_HAL_Driver/Src/stm32l0xx_ll_rtc.c ****     /* If  RTC_CR_BYPSHAD bit = 0, wait for synchro else this check is not needed */
 404:Drivers/STM32L0xx_HAL_Driver/Src/stm32l0xx_ll_rtc.c ****     if (LL_RTC_IsShadowRegBypassEnabled(RTCx) == 0U)
 405:Drivers/STM32L0xx_HAL_Driver/Src/stm32l0xx_ll_rtc.c ****     {
 406:Drivers/STM32L0xx_HAL_Driver/Src/stm32l0xx_ll_rtc.c ****       status = LL_RTC_WaitForSynchro(RTCx);
 407:Drivers/STM32L0xx_HAL_Driver/Src/stm32l0xx_ll_rtc.c ****     }
 408:Drivers/STM32L0xx_HAL_Driver/Src/stm32l0xx_ll_rtc.c ****     else
 409:Drivers/STM32L0xx_HAL_Driver/Src/stm32l0xx_ll_rtc.c ****     {
 410:Drivers/STM32L0xx_HAL_Driver/Src/stm32l0xx_ll_rtc.c ****       status = SUCCESS;
 411:Drivers/STM32L0xx_HAL_Driver/Src/stm32l0xx_ll_rtc.c ****     }
 412:Drivers/STM32L0xx_HAL_Driver/Src/stm32l0xx_ll_rtc.c ****   }
 413:Drivers/STM32L0xx_HAL_Driver/Src/stm32l0xx_ll_rtc.c ****   /* Enable the write protection for RTC registers */
 414:Drivers/STM32L0xx_HAL_Driver/Src/stm32l0xx_ll_rtc.c ****   LL_RTC_EnableWriteProtection(RTCx);
 415:Drivers/STM32L0xx_HAL_Driver/Src/stm32l0xx_ll_rtc.c **** 
 416:Drivers/STM32L0xx_HAL_Driver/Src/stm32l0xx_ll_rtc.c ****   return status;
 417:Drivers/STM32L0xx_HAL_Driver/Src/stm32l0xx_ll_rtc.c **** }
 418:Drivers/STM32L0xx_HAL_Driver/Src/stm32l0xx_ll_rtc.c **** 
 419:Drivers/STM32L0xx_HAL_Driver/Src/stm32l0xx_ll_rtc.c **** /**
 420:Drivers/STM32L0xx_HAL_Driver/Src/stm32l0xx_ll_rtc.c ****   * @brief  Set each @ref LL_RTC_DateTypeDef field to default value (date = Monday, January 01 xx00
 421:Drivers/STM32L0xx_HAL_Driver/Src/stm32l0xx_ll_rtc.c ****   * @param  RTC_DateStruct pointer to a @ref LL_RTC_DateTypeDef structure which will be initialized
 422:Drivers/STM32L0xx_HAL_Driver/Src/stm32l0xx_ll_rtc.c ****   * @retval None
 423:Drivers/STM32L0xx_HAL_Driver/Src/stm32l0xx_ll_rtc.c ****   */
 424:Drivers/STM32L0xx_HAL_Driver/Src/stm32l0xx_ll_rtc.c **** void LL_RTC_DATE_StructInit(LL_RTC_DateTypeDef *RTC_DateStruct)
ARM GAS  C:\Users\Nathan\AppData\Local\Temp\ccAQTZu2.s 			page 10


 425:Drivers/STM32L0xx_HAL_Driver/Src/stm32l0xx_ll_rtc.c **** {
  95              		.loc 1 425 1 is_stmt 1 view -0
  96              		.cfi_startproc
  97              		@ args = 0, pretend = 0, frame = 0
  98              		@ frame_needed = 0, uses_anonymous_args = 0
  99              		@ link register save eliminated.
 426:Drivers/STM32L0xx_HAL_Driver/Src/stm32l0xx_ll_rtc.c ****   /* Monday, January 01 xx00 */
 427:Drivers/STM32L0xx_HAL_Driver/Src/stm32l0xx_ll_rtc.c ****   RTC_DateStruct->WeekDay = LL_RTC_WEEKDAY_MONDAY;
 100              		.loc 1 427 3 view .LVU19
 101              		.loc 1 427 27 is_stmt 0 view .LVU20
 102 0000 0123     		movs	r3, #1
 103 0002 0370     		strb	r3, [r0]
 428:Drivers/STM32L0xx_HAL_Driver/Src/stm32l0xx_ll_rtc.c ****   RTC_DateStruct->Day     = 1U;
 104              		.loc 1 428 3 is_stmt 1 view .LVU21
 105              		.loc 1 428 27 is_stmt 0 view .LVU22
 106 0004 8370     		strb	r3, [r0, #2]
 429:Drivers/STM32L0xx_HAL_Driver/Src/stm32l0xx_ll_rtc.c ****   RTC_DateStruct->Month   = LL_RTC_MONTH_JANUARY;
 107              		.loc 1 429 3 is_stmt 1 view .LVU23
 108              		.loc 1 429 27 is_stmt 0 view .LVU24
 109 0006 4370     		strb	r3, [r0, #1]
 430:Drivers/STM32L0xx_HAL_Driver/Src/stm32l0xx_ll_rtc.c ****   RTC_DateStruct->Year    = 0U;
 110              		.loc 1 430 3 is_stmt 1 view .LVU25
 111              		.loc 1 430 27 is_stmt 0 view .LVU26
 112 0008 0023     		movs	r3, #0
 113 000a C370     		strb	r3, [r0, #3]
 431:Drivers/STM32L0xx_HAL_Driver/Src/stm32l0xx_ll_rtc.c **** }
 114              		.loc 1 431 1 view .LVU27
 115              		@ sp needed
 116 000c 7047     		bx	lr
 117              		.cfi_endproc
 118              	.LFE267:
 120              		.global	__aeabi_uidiv
 121              		.global	__aeabi_uidivmod
 122              		.section	.text.LL_RTC_ALMA_Init,"ax",%progbits
 123              		.align	1
 124              		.global	LL_RTC_ALMA_Init
 125              		.syntax unified
 126              		.code	16
 127              		.thumb_func
 129              	LL_RTC_ALMA_Init:
 130              	.LVL3:
 131              	.LFB268:
 432:Drivers/STM32L0xx_HAL_Driver/Src/stm32l0xx_ll_rtc.c **** 
 433:Drivers/STM32L0xx_HAL_Driver/Src/stm32l0xx_ll_rtc.c **** /**
 434:Drivers/STM32L0xx_HAL_Driver/Src/stm32l0xx_ll_rtc.c ****   * @brief  Set the RTC Alarm A.
 435:Drivers/STM32L0xx_HAL_Driver/Src/stm32l0xx_ll_rtc.c ****   * @note   The Alarm register can only be written when the corresponding Alarm
 436:Drivers/STM32L0xx_HAL_Driver/Src/stm32l0xx_ll_rtc.c ****   *         is disabled (Use @ref LL_RTC_ALMA_Disable function).
 437:Drivers/STM32L0xx_HAL_Driver/Src/stm32l0xx_ll_rtc.c ****   * @param  RTCx RTC Instance
 438:Drivers/STM32L0xx_HAL_Driver/Src/stm32l0xx_ll_rtc.c ****   * @param  RTC_Format This parameter can be one of the following values:
 439:Drivers/STM32L0xx_HAL_Driver/Src/stm32l0xx_ll_rtc.c ****   *         @arg @ref LL_RTC_FORMAT_BIN
 440:Drivers/STM32L0xx_HAL_Driver/Src/stm32l0xx_ll_rtc.c ****   *         @arg @ref LL_RTC_FORMAT_BCD
 441:Drivers/STM32L0xx_HAL_Driver/Src/stm32l0xx_ll_rtc.c ****   * @param  RTC_AlarmStruct pointer to a @ref LL_RTC_AlarmTypeDef structure that
 442:Drivers/STM32L0xx_HAL_Driver/Src/stm32l0xx_ll_rtc.c ****   *                         contains the alarm configuration parameters.
 443:Drivers/STM32L0xx_HAL_Driver/Src/stm32l0xx_ll_rtc.c ****   * @retval An ErrorStatus enumeration value:
 444:Drivers/STM32L0xx_HAL_Driver/Src/stm32l0xx_ll_rtc.c ****   *          - SUCCESS: ALARMA registers are configured
 445:Drivers/STM32L0xx_HAL_Driver/Src/stm32l0xx_ll_rtc.c ****   *          - ERROR: ALARMA registers are not configured
 446:Drivers/STM32L0xx_HAL_Driver/Src/stm32l0xx_ll_rtc.c ****   */
ARM GAS  C:\Users\Nathan\AppData\Local\Temp\ccAQTZu2.s 			page 11


 447:Drivers/STM32L0xx_HAL_Driver/Src/stm32l0xx_ll_rtc.c **** ErrorStatus LL_RTC_ALMA_Init(RTC_TypeDef *RTCx, uint32_t RTC_Format, LL_RTC_AlarmTypeDef *RTC_Alarm
 448:Drivers/STM32L0xx_HAL_Driver/Src/stm32l0xx_ll_rtc.c **** {
 132              		.loc 1 448 1 is_stmt 1 view -0
 133              		.cfi_startproc
 134              		@ args = 0, pretend = 0, frame = 0
 135              		@ frame_needed = 0, uses_anonymous_args = 0
 136              		.loc 1 448 1 is_stmt 0 view .LVU29
 137 0000 F0B5     		push	{r4, r5, r6, r7, lr}
 138              	.LCFI0:
 139              		.cfi_def_cfa_offset 20
 140              		.cfi_offset 4, -20
 141              		.cfi_offset 5, -16
 142              		.cfi_offset 6, -12
 143              		.cfi_offset 7, -8
 144              		.cfi_offset 14, -4
 145 0002 D646     		mov	lr, r10
 146 0004 4F46     		mov	r7, r9
 147 0006 4646     		mov	r6, r8
 148 0008 C0B5     		push	{r6, r7, lr}
 149              	.LCFI1:
 150              		.cfi_def_cfa_offset 32
 151              		.cfi_offset 8, -32
 152              		.cfi_offset 9, -28
 153              		.cfi_offset 10, -24
 154 000a 0400     		movs	r4, r0
 155 000c 0E00     		movs	r6, r1
 156 000e 1500     		movs	r5, r2
 449:Drivers/STM32L0xx_HAL_Driver/Src/stm32l0xx_ll_rtc.c ****   /* Check the parameters */
 450:Drivers/STM32L0xx_HAL_Driver/Src/stm32l0xx_ll_rtc.c ****   assert_param(IS_RTC_ALL_INSTANCE(RTCx));
 157              		.loc 1 450 3 is_stmt 1 view .LVU30
 451:Drivers/STM32L0xx_HAL_Driver/Src/stm32l0xx_ll_rtc.c ****   assert_param(IS_LL_RTC_FORMAT(RTC_Format));
 158              		.loc 1 451 3 view .LVU31
 452:Drivers/STM32L0xx_HAL_Driver/Src/stm32l0xx_ll_rtc.c ****   assert_param(IS_LL_RTC_ALMA_MASK(RTC_AlarmStruct->AlarmMask));
 159              		.loc 1 452 3 view .LVU32
 453:Drivers/STM32L0xx_HAL_Driver/Src/stm32l0xx_ll_rtc.c ****   assert_param(IS_LL_RTC_ALMA_DATE_WEEKDAY_SEL(RTC_AlarmStruct->AlarmDateWeekDaySel));
 160              		.loc 1 453 3 view .LVU33
 454:Drivers/STM32L0xx_HAL_Driver/Src/stm32l0xx_ll_rtc.c **** 
 455:Drivers/STM32L0xx_HAL_Driver/Src/stm32l0xx_ll_rtc.c ****   if (RTC_Format == LL_RTC_FORMAT_BIN)
 161              		.loc 1 455 3 view .LVU34
 162              		.loc 1 455 6 is_stmt 0 view .LVU35
 163 0010 0029     		cmp	r1, #0
 164 0012 19D1     		bne	.L5
 456:Drivers/STM32L0xx_HAL_Driver/Src/stm32l0xx_ll_rtc.c ****   {
 457:Drivers/STM32L0xx_HAL_Driver/Src/stm32l0xx_ll_rtc.c ****     if (LL_RTC_GetHourFormat(RTCx) != LL_RTC_HOURFORMAT_24HOUR)
 165              		.loc 1 457 5 is_stmt 1 view .LVU36
 166              	.LVL4:
 167              	.LBB114:
 168              	.LBI114:
 169              		.file 2 "Drivers/STM32L0xx_HAL_Driver/Inc/stm32l0xx_ll_rtc.h"
   1:Drivers/STM32L0xx_HAL_Driver/Inc/stm32l0xx_ll_rtc.h **** /**
   2:Drivers/STM32L0xx_HAL_Driver/Inc/stm32l0xx_ll_rtc.h ****   ******************************************************************************
   3:Drivers/STM32L0xx_HAL_Driver/Inc/stm32l0xx_ll_rtc.h ****   * @file    stm32l0xx_ll_rtc.h
   4:Drivers/STM32L0xx_HAL_Driver/Inc/stm32l0xx_ll_rtc.h ****   * @author  MCD Application Team
   5:Drivers/STM32L0xx_HAL_Driver/Inc/stm32l0xx_ll_rtc.h ****   * @brief   Header file of RTC LL module.
   6:Drivers/STM32L0xx_HAL_Driver/Inc/stm32l0xx_ll_rtc.h ****   ******************************************************************************
   7:Drivers/STM32L0xx_HAL_Driver/Inc/stm32l0xx_ll_rtc.h ****   * @attention
   8:Drivers/STM32L0xx_HAL_Driver/Inc/stm32l0xx_ll_rtc.h ****   *
ARM GAS  C:\Users\Nathan\AppData\Local\Temp\ccAQTZu2.s 			page 12


   9:Drivers/STM32L0xx_HAL_Driver/Inc/stm32l0xx_ll_rtc.h ****   * Copyright (c) 2016 STMicroelectronics.
  10:Drivers/STM32L0xx_HAL_Driver/Inc/stm32l0xx_ll_rtc.h ****   * All rights reserved.
  11:Drivers/STM32L0xx_HAL_Driver/Inc/stm32l0xx_ll_rtc.h ****   *
  12:Drivers/STM32L0xx_HAL_Driver/Inc/stm32l0xx_ll_rtc.h ****   * This software is licensed under terms that can be found in the LICENSE file
  13:Drivers/STM32L0xx_HAL_Driver/Inc/stm32l0xx_ll_rtc.h ****   * in the root directory of this software component.
  14:Drivers/STM32L0xx_HAL_Driver/Inc/stm32l0xx_ll_rtc.h ****   * If no LICENSE file comes with this software, it is provided AS-IS.
  15:Drivers/STM32L0xx_HAL_Driver/Inc/stm32l0xx_ll_rtc.h ****   *
  16:Drivers/STM32L0xx_HAL_Driver/Inc/stm32l0xx_ll_rtc.h ****   ******************************************************************************
  17:Drivers/STM32L0xx_HAL_Driver/Inc/stm32l0xx_ll_rtc.h ****   */
  18:Drivers/STM32L0xx_HAL_Driver/Inc/stm32l0xx_ll_rtc.h **** 
  19:Drivers/STM32L0xx_HAL_Driver/Inc/stm32l0xx_ll_rtc.h **** /* Define to prevent recursive inclusion -------------------------------------*/
  20:Drivers/STM32L0xx_HAL_Driver/Inc/stm32l0xx_ll_rtc.h **** #ifndef STM32L0xx_LL_RTC_H
  21:Drivers/STM32L0xx_HAL_Driver/Inc/stm32l0xx_ll_rtc.h **** #define STM32L0xx_LL_RTC_H
  22:Drivers/STM32L0xx_HAL_Driver/Inc/stm32l0xx_ll_rtc.h **** 
  23:Drivers/STM32L0xx_HAL_Driver/Inc/stm32l0xx_ll_rtc.h **** #ifdef __cplusplus
  24:Drivers/STM32L0xx_HAL_Driver/Inc/stm32l0xx_ll_rtc.h **** extern "C" {
  25:Drivers/STM32L0xx_HAL_Driver/Inc/stm32l0xx_ll_rtc.h **** #endif
  26:Drivers/STM32L0xx_HAL_Driver/Inc/stm32l0xx_ll_rtc.h **** 
  27:Drivers/STM32L0xx_HAL_Driver/Inc/stm32l0xx_ll_rtc.h **** /* Includes ------------------------------------------------------------------*/
  28:Drivers/STM32L0xx_HAL_Driver/Inc/stm32l0xx_ll_rtc.h **** #include "stm32l0xx.h"
  29:Drivers/STM32L0xx_HAL_Driver/Inc/stm32l0xx_ll_rtc.h **** 
  30:Drivers/STM32L0xx_HAL_Driver/Inc/stm32l0xx_ll_rtc.h **** /** @addtogroup STM32L0xx_LL_Driver
  31:Drivers/STM32L0xx_HAL_Driver/Inc/stm32l0xx_ll_rtc.h ****   * @{
  32:Drivers/STM32L0xx_HAL_Driver/Inc/stm32l0xx_ll_rtc.h ****   */
  33:Drivers/STM32L0xx_HAL_Driver/Inc/stm32l0xx_ll_rtc.h **** 
  34:Drivers/STM32L0xx_HAL_Driver/Inc/stm32l0xx_ll_rtc.h **** #if defined(RTC)
  35:Drivers/STM32L0xx_HAL_Driver/Inc/stm32l0xx_ll_rtc.h **** 
  36:Drivers/STM32L0xx_HAL_Driver/Inc/stm32l0xx_ll_rtc.h **** /** @defgroup RTC_LL RTC
  37:Drivers/STM32L0xx_HAL_Driver/Inc/stm32l0xx_ll_rtc.h ****   * @{
  38:Drivers/STM32L0xx_HAL_Driver/Inc/stm32l0xx_ll_rtc.h ****   */
  39:Drivers/STM32L0xx_HAL_Driver/Inc/stm32l0xx_ll_rtc.h **** 
  40:Drivers/STM32L0xx_HAL_Driver/Inc/stm32l0xx_ll_rtc.h **** /* Private types -------------------------------------------------------------*/
  41:Drivers/STM32L0xx_HAL_Driver/Inc/stm32l0xx_ll_rtc.h **** /* Private variables ---------------------------------------------------------*/
  42:Drivers/STM32L0xx_HAL_Driver/Inc/stm32l0xx_ll_rtc.h **** /* Private constants ---------------------------------------------------------*/
  43:Drivers/STM32L0xx_HAL_Driver/Inc/stm32l0xx_ll_rtc.h **** /** @defgroup RTC_LL_Private_Constants RTC Private Constants
  44:Drivers/STM32L0xx_HAL_Driver/Inc/stm32l0xx_ll_rtc.h ****   * @{
  45:Drivers/STM32L0xx_HAL_Driver/Inc/stm32l0xx_ll_rtc.h ****   */
  46:Drivers/STM32L0xx_HAL_Driver/Inc/stm32l0xx_ll_rtc.h **** /* Masks Definition */
  47:Drivers/STM32L0xx_HAL_Driver/Inc/stm32l0xx_ll_rtc.h **** #define RTC_INIT_MASK                 0xFFFFFFFFU
  48:Drivers/STM32L0xx_HAL_Driver/Inc/stm32l0xx_ll_rtc.h **** #define RTC_RSF_MASK                  ((uint32_t)~(RTC_ISR_INIT | RTC_ISR_RSF))
  49:Drivers/STM32L0xx_HAL_Driver/Inc/stm32l0xx_ll_rtc.h **** 
  50:Drivers/STM32L0xx_HAL_Driver/Inc/stm32l0xx_ll_rtc.h **** /* Write protection defines */
  51:Drivers/STM32L0xx_HAL_Driver/Inc/stm32l0xx_ll_rtc.h **** #define RTC_WRITE_PROTECTION_DISABLE  ((uint8_t)0xFFU)
  52:Drivers/STM32L0xx_HAL_Driver/Inc/stm32l0xx_ll_rtc.h **** #define RTC_WRITE_PROTECTION_ENABLE_1 ((uint8_t)0xCAU)
  53:Drivers/STM32L0xx_HAL_Driver/Inc/stm32l0xx_ll_rtc.h **** #define RTC_WRITE_PROTECTION_ENABLE_2 ((uint8_t)0x53U)
  54:Drivers/STM32L0xx_HAL_Driver/Inc/stm32l0xx_ll_rtc.h **** 
  55:Drivers/STM32L0xx_HAL_Driver/Inc/stm32l0xx_ll_rtc.h **** /* Defines used to combine date & time */
  56:Drivers/STM32L0xx_HAL_Driver/Inc/stm32l0xx_ll_rtc.h **** #define RTC_OFFSET_WEEKDAY            24U
  57:Drivers/STM32L0xx_HAL_Driver/Inc/stm32l0xx_ll_rtc.h **** #define RTC_OFFSET_DAY                16U
  58:Drivers/STM32L0xx_HAL_Driver/Inc/stm32l0xx_ll_rtc.h **** #define RTC_OFFSET_MONTH              8U
  59:Drivers/STM32L0xx_HAL_Driver/Inc/stm32l0xx_ll_rtc.h **** #define RTC_OFFSET_HOUR               16U
  60:Drivers/STM32L0xx_HAL_Driver/Inc/stm32l0xx_ll_rtc.h **** #define RTC_OFFSET_MINUTE             8U
  61:Drivers/STM32L0xx_HAL_Driver/Inc/stm32l0xx_ll_rtc.h **** 
  62:Drivers/STM32L0xx_HAL_Driver/Inc/stm32l0xx_ll_rtc.h **** /**
  63:Drivers/STM32L0xx_HAL_Driver/Inc/stm32l0xx_ll_rtc.h ****   * @}
  64:Drivers/STM32L0xx_HAL_Driver/Inc/stm32l0xx_ll_rtc.h ****   */
  65:Drivers/STM32L0xx_HAL_Driver/Inc/stm32l0xx_ll_rtc.h **** 
ARM GAS  C:\Users\Nathan\AppData\Local\Temp\ccAQTZu2.s 			page 13


  66:Drivers/STM32L0xx_HAL_Driver/Inc/stm32l0xx_ll_rtc.h **** /* Private macros ------------------------------------------------------------*/
  67:Drivers/STM32L0xx_HAL_Driver/Inc/stm32l0xx_ll_rtc.h **** #if defined(USE_FULL_LL_DRIVER)
  68:Drivers/STM32L0xx_HAL_Driver/Inc/stm32l0xx_ll_rtc.h **** /** @defgroup RTC_LL_Private_Macros RTC Private Macros
  69:Drivers/STM32L0xx_HAL_Driver/Inc/stm32l0xx_ll_rtc.h ****   * @{
  70:Drivers/STM32L0xx_HAL_Driver/Inc/stm32l0xx_ll_rtc.h ****   */
  71:Drivers/STM32L0xx_HAL_Driver/Inc/stm32l0xx_ll_rtc.h **** /**
  72:Drivers/STM32L0xx_HAL_Driver/Inc/stm32l0xx_ll_rtc.h ****   * @}
  73:Drivers/STM32L0xx_HAL_Driver/Inc/stm32l0xx_ll_rtc.h ****   */
  74:Drivers/STM32L0xx_HAL_Driver/Inc/stm32l0xx_ll_rtc.h **** #endif /*USE_FULL_LL_DRIVER*/
  75:Drivers/STM32L0xx_HAL_Driver/Inc/stm32l0xx_ll_rtc.h **** 
  76:Drivers/STM32L0xx_HAL_Driver/Inc/stm32l0xx_ll_rtc.h **** /* Exported types ------------------------------------------------------------*/
  77:Drivers/STM32L0xx_HAL_Driver/Inc/stm32l0xx_ll_rtc.h **** #if defined(USE_FULL_LL_DRIVER)
  78:Drivers/STM32L0xx_HAL_Driver/Inc/stm32l0xx_ll_rtc.h **** /** @defgroup RTC_LL_ES_INIT RTC Exported Init structure
  79:Drivers/STM32L0xx_HAL_Driver/Inc/stm32l0xx_ll_rtc.h ****   * @{
  80:Drivers/STM32L0xx_HAL_Driver/Inc/stm32l0xx_ll_rtc.h ****   */
  81:Drivers/STM32L0xx_HAL_Driver/Inc/stm32l0xx_ll_rtc.h **** 
  82:Drivers/STM32L0xx_HAL_Driver/Inc/stm32l0xx_ll_rtc.h **** /**
  83:Drivers/STM32L0xx_HAL_Driver/Inc/stm32l0xx_ll_rtc.h ****   * @brief  RTC Init structures definition
  84:Drivers/STM32L0xx_HAL_Driver/Inc/stm32l0xx_ll_rtc.h ****   */
  85:Drivers/STM32L0xx_HAL_Driver/Inc/stm32l0xx_ll_rtc.h **** typedef struct
  86:Drivers/STM32L0xx_HAL_Driver/Inc/stm32l0xx_ll_rtc.h **** {
  87:Drivers/STM32L0xx_HAL_Driver/Inc/stm32l0xx_ll_rtc.h ****   uint32_t HourFormat;   /*!< Specifies the RTC Hours Format.
  88:Drivers/STM32L0xx_HAL_Driver/Inc/stm32l0xx_ll_rtc.h ****                               This parameter can be a value of @ref RTC_LL_EC_HOURFORMAT
  89:Drivers/STM32L0xx_HAL_Driver/Inc/stm32l0xx_ll_rtc.h **** 
  90:Drivers/STM32L0xx_HAL_Driver/Inc/stm32l0xx_ll_rtc.h ****                               This feature can be modified afterwards using unitary function
  91:Drivers/STM32L0xx_HAL_Driver/Inc/stm32l0xx_ll_rtc.h ****                               @ref LL_RTC_SetHourFormat(). */
  92:Drivers/STM32L0xx_HAL_Driver/Inc/stm32l0xx_ll_rtc.h **** 
  93:Drivers/STM32L0xx_HAL_Driver/Inc/stm32l0xx_ll_rtc.h ****   uint32_t AsynchPrescaler; /*!< Specifies the RTC Asynchronous Predivider value.
  94:Drivers/STM32L0xx_HAL_Driver/Inc/stm32l0xx_ll_rtc.h ****                               This parameter must be a number between Min_Data = 0x00 and Max_Data 
  95:Drivers/STM32L0xx_HAL_Driver/Inc/stm32l0xx_ll_rtc.h **** 
  96:Drivers/STM32L0xx_HAL_Driver/Inc/stm32l0xx_ll_rtc.h ****                               This feature can be modified afterwards using unitary function
  97:Drivers/STM32L0xx_HAL_Driver/Inc/stm32l0xx_ll_rtc.h ****                               @ref LL_RTC_SetAsynchPrescaler(). */
  98:Drivers/STM32L0xx_HAL_Driver/Inc/stm32l0xx_ll_rtc.h **** 
  99:Drivers/STM32L0xx_HAL_Driver/Inc/stm32l0xx_ll_rtc.h ****   uint32_t SynchPrescaler;  /*!< Specifies the RTC Synchronous Predivider value.
 100:Drivers/STM32L0xx_HAL_Driver/Inc/stm32l0xx_ll_rtc.h ****                               This parameter must be a number between Min_Data = 0x00 and Max_Data 
 101:Drivers/STM32L0xx_HAL_Driver/Inc/stm32l0xx_ll_rtc.h **** 
 102:Drivers/STM32L0xx_HAL_Driver/Inc/stm32l0xx_ll_rtc.h ****                               This feature can be modified afterwards using unitary function
 103:Drivers/STM32L0xx_HAL_Driver/Inc/stm32l0xx_ll_rtc.h ****                               @ref LL_RTC_SetSynchPrescaler(). */
 104:Drivers/STM32L0xx_HAL_Driver/Inc/stm32l0xx_ll_rtc.h **** } LL_RTC_InitTypeDef;
 105:Drivers/STM32L0xx_HAL_Driver/Inc/stm32l0xx_ll_rtc.h **** 
 106:Drivers/STM32L0xx_HAL_Driver/Inc/stm32l0xx_ll_rtc.h **** /**
 107:Drivers/STM32L0xx_HAL_Driver/Inc/stm32l0xx_ll_rtc.h ****   * @brief  RTC Time structure definition
 108:Drivers/STM32L0xx_HAL_Driver/Inc/stm32l0xx_ll_rtc.h ****   */
 109:Drivers/STM32L0xx_HAL_Driver/Inc/stm32l0xx_ll_rtc.h **** typedef struct
 110:Drivers/STM32L0xx_HAL_Driver/Inc/stm32l0xx_ll_rtc.h **** {
 111:Drivers/STM32L0xx_HAL_Driver/Inc/stm32l0xx_ll_rtc.h ****   uint32_t TimeFormat; /*!< Specifies the RTC AM/PM Time.
 112:Drivers/STM32L0xx_HAL_Driver/Inc/stm32l0xx_ll_rtc.h ****                             This parameter can be a value of @ref RTC_LL_EC_TIME_FORMAT
 113:Drivers/STM32L0xx_HAL_Driver/Inc/stm32l0xx_ll_rtc.h **** 
 114:Drivers/STM32L0xx_HAL_Driver/Inc/stm32l0xx_ll_rtc.h ****                             This feature can be modified afterwards using unitary function @ref LL_
 115:Drivers/STM32L0xx_HAL_Driver/Inc/stm32l0xx_ll_rtc.h **** 
 116:Drivers/STM32L0xx_HAL_Driver/Inc/stm32l0xx_ll_rtc.h ****   uint8_t Hours;       /*!< Specifies the RTC Time Hours.
 117:Drivers/STM32L0xx_HAL_Driver/Inc/stm32l0xx_ll_rtc.h ****                             This parameter must be a number between Min_Data = 0 and Max_Data = 12 
 118:Drivers/STM32L0xx_HAL_Driver/Inc/stm32l0xx_ll_rtc.h ****                             This parameter must be a number between Min_Data = 0 and Max_Data = 23 
 119:Drivers/STM32L0xx_HAL_Driver/Inc/stm32l0xx_ll_rtc.h **** 
 120:Drivers/STM32L0xx_HAL_Driver/Inc/stm32l0xx_ll_rtc.h ****                             This feature can be modified afterwards using unitary function @ref LL_
 121:Drivers/STM32L0xx_HAL_Driver/Inc/stm32l0xx_ll_rtc.h **** 
 122:Drivers/STM32L0xx_HAL_Driver/Inc/stm32l0xx_ll_rtc.h ****   uint8_t Minutes;     /*!< Specifies the RTC Time Minutes.
ARM GAS  C:\Users\Nathan\AppData\Local\Temp\ccAQTZu2.s 			page 14


 123:Drivers/STM32L0xx_HAL_Driver/Inc/stm32l0xx_ll_rtc.h ****                             This parameter must be a number between Min_Data = 0 and Max_Data = 59
 124:Drivers/STM32L0xx_HAL_Driver/Inc/stm32l0xx_ll_rtc.h **** 
 125:Drivers/STM32L0xx_HAL_Driver/Inc/stm32l0xx_ll_rtc.h ****                             This feature can be modified afterwards using unitary function @ref LL_
 126:Drivers/STM32L0xx_HAL_Driver/Inc/stm32l0xx_ll_rtc.h **** 
 127:Drivers/STM32L0xx_HAL_Driver/Inc/stm32l0xx_ll_rtc.h ****   uint8_t Seconds;     /*!< Specifies the RTC Time Seconds.
 128:Drivers/STM32L0xx_HAL_Driver/Inc/stm32l0xx_ll_rtc.h ****                             This parameter must be a number between Min_Data = 0 and Max_Data = 59
 129:Drivers/STM32L0xx_HAL_Driver/Inc/stm32l0xx_ll_rtc.h **** 
 130:Drivers/STM32L0xx_HAL_Driver/Inc/stm32l0xx_ll_rtc.h ****                             This feature can be modified afterwards using unitary function @ref LL_
 131:Drivers/STM32L0xx_HAL_Driver/Inc/stm32l0xx_ll_rtc.h **** } LL_RTC_TimeTypeDef;
 132:Drivers/STM32L0xx_HAL_Driver/Inc/stm32l0xx_ll_rtc.h **** 
 133:Drivers/STM32L0xx_HAL_Driver/Inc/stm32l0xx_ll_rtc.h **** /**
 134:Drivers/STM32L0xx_HAL_Driver/Inc/stm32l0xx_ll_rtc.h ****   * @brief  RTC Date structure definition
 135:Drivers/STM32L0xx_HAL_Driver/Inc/stm32l0xx_ll_rtc.h ****   */
 136:Drivers/STM32L0xx_HAL_Driver/Inc/stm32l0xx_ll_rtc.h **** typedef struct
 137:Drivers/STM32L0xx_HAL_Driver/Inc/stm32l0xx_ll_rtc.h **** {
 138:Drivers/STM32L0xx_HAL_Driver/Inc/stm32l0xx_ll_rtc.h ****   uint8_t WeekDay;  /*!< Specifies the RTC Date WeekDay.
 139:Drivers/STM32L0xx_HAL_Driver/Inc/stm32l0xx_ll_rtc.h ****                          This parameter can be a value of @ref RTC_LL_EC_WEEKDAY
 140:Drivers/STM32L0xx_HAL_Driver/Inc/stm32l0xx_ll_rtc.h **** 
 141:Drivers/STM32L0xx_HAL_Driver/Inc/stm32l0xx_ll_rtc.h ****                          This feature can be modified afterwards using unitary function @ref LL_RTC
 142:Drivers/STM32L0xx_HAL_Driver/Inc/stm32l0xx_ll_rtc.h **** 
 143:Drivers/STM32L0xx_HAL_Driver/Inc/stm32l0xx_ll_rtc.h ****   uint8_t Month;    /*!< Specifies the RTC Date Month.
 144:Drivers/STM32L0xx_HAL_Driver/Inc/stm32l0xx_ll_rtc.h ****                          This parameter can be a value of @ref RTC_LL_EC_MONTH
 145:Drivers/STM32L0xx_HAL_Driver/Inc/stm32l0xx_ll_rtc.h **** 
 146:Drivers/STM32L0xx_HAL_Driver/Inc/stm32l0xx_ll_rtc.h ****                          This feature can be modified afterwards using unitary function @ref LL_RTC
 147:Drivers/STM32L0xx_HAL_Driver/Inc/stm32l0xx_ll_rtc.h **** 
 148:Drivers/STM32L0xx_HAL_Driver/Inc/stm32l0xx_ll_rtc.h ****   uint8_t Day;      /*!< Specifies the RTC Date Day.
 149:Drivers/STM32L0xx_HAL_Driver/Inc/stm32l0xx_ll_rtc.h ****                          This parameter must be a number between Min_Data = 1 and Max_Data = 31
 150:Drivers/STM32L0xx_HAL_Driver/Inc/stm32l0xx_ll_rtc.h **** 
 151:Drivers/STM32L0xx_HAL_Driver/Inc/stm32l0xx_ll_rtc.h ****                          This feature can be modified afterwards using unitary function @ref LL_RTC
 152:Drivers/STM32L0xx_HAL_Driver/Inc/stm32l0xx_ll_rtc.h **** 
 153:Drivers/STM32L0xx_HAL_Driver/Inc/stm32l0xx_ll_rtc.h ****   uint8_t Year;     /*!< Specifies the RTC Date Year.
 154:Drivers/STM32L0xx_HAL_Driver/Inc/stm32l0xx_ll_rtc.h ****                          This parameter must be a number between Min_Data = 0 and Max_Data = 99
 155:Drivers/STM32L0xx_HAL_Driver/Inc/stm32l0xx_ll_rtc.h **** 
 156:Drivers/STM32L0xx_HAL_Driver/Inc/stm32l0xx_ll_rtc.h ****                          This feature can be modified afterwards using unitary function @ref LL_RTC
 157:Drivers/STM32L0xx_HAL_Driver/Inc/stm32l0xx_ll_rtc.h **** } LL_RTC_DateTypeDef;
 158:Drivers/STM32L0xx_HAL_Driver/Inc/stm32l0xx_ll_rtc.h **** 
 159:Drivers/STM32L0xx_HAL_Driver/Inc/stm32l0xx_ll_rtc.h **** /**
 160:Drivers/STM32L0xx_HAL_Driver/Inc/stm32l0xx_ll_rtc.h ****   * @brief  RTC Alarm structure definition
 161:Drivers/STM32L0xx_HAL_Driver/Inc/stm32l0xx_ll_rtc.h ****   */
 162:Drivers/STM32L0xx_HAL_Driver/Inc/stm32l0xx_ll_rtc.h **** typedef struct
 163:Drivers/STM32L0xx_HAL_Driver/Inc/stm32l0xx_ll_rtc.h **** {
 164:Drivers/STM32L0xx_HAL_Driver/Inc/stm32l0xx_ll_rtc.h ****   LL_RTC_TimeTypeDef AlarmTime;  /*!< Specifies the RTC Alarm Time members. */
 165:Drivers/STM32L0xx_HAL_Driver/Inc/stm32l0xx_ll_rtc.h **** 
 166:Drivers/STM32L0xx_HAL_Driver/Inc/stm32l0xx_ll_rtc.h ****   uint32_t AlarmMask;            /*!< Specifies the RTC Alarm Masks.
 167:Drivers/STM32L0xx_HAL_Driver/Inc/stm32l0xx_ll_rtc.h ****                                       This parameter can be a value of @ref RTC_LL_EC_ALMA_MASK for
 168:Drivers/STM32L0xx_HAL_Driver/Inc/stm32l0xx_ll_rtc.h **** 
 169:Drivers/STM32L0xx_HAL_Driver/Inc/stm32l0xx_ll_rtc.h ****                                       This feature can be modified afterwards using unitary functio
 170:Drivers/STM32L0xx_HAL_Driver/Inc/stm32l0xx_ll_rtc.h ****                                       or @ref LL_RTC_ALMB_SetMask() for ALARM B.
 171:Drivers/STM32L0xx_HAL_Driver/Inc/stm32l0xx_ll_rtc.h ****                                  */
 172:Drivers/STM32L0xx_HAL_Driver/Inc/stm32l0xx_ll_rtc.h **** 
 173:Drivers/STM32L0xx_HAL_Driver/Inc/stm32l0xx_ll_rtc.h ****   uint32_t AlarmDateWeekDaySel;  /*!< Specifies the RTC Alarm is on day or WeekDay.
 174:Drivers/STM32L0xx_HAL_Driver/Inc/stm32l0xx_ll_rtc.h ****                                       This parameter can be a value of @ref RTC_LL_EC_ALMA_WEEKDAY_
 175:Drivers/STM32L0xx_HAL_Driver/Inc/stm32l0xx_ll_rtc.h **** 
 176:Drivers/STM32L0xx_HAL_Driver/Inc/stm32l0xx_ll_rtc.h ****                                       This feature can be modified afterwards using unitary functio
 177:Drivers/STM32L0xx_HAL_Driver/Inc/stm32l0xx_ll_rtc.h ****                                       for ALARM A or @ref LL_RTC_ALMB_EnableWeekday() or @ref LL_RT
 178:Drivers/STM32L0xx_HAL_Driver/Inc/stm32l0xx_ll_rtc.h ****                                  */
 179:Drivers/STM32L0xx_HAL_Driver/Inc/stm32l0xx_ll_rtc.h **** 
ARM GAS  C:\Users\Nathan\AppData\Local\Temp\ccAQTZu2.s 			page 15


 180:Drivers/STM32L0xx_HAL_Driver/Inc/stm32l0xx_ll_rtc.h ****   uint8_t AlarmDateWeekDay;      /*!< Specifies the RTC Alarm Day/WeekDay.
 181:Drivers/STM32L0xx_HAL_Driver/Inc/stm32l0xx_ll_rtc.h ****                                       If AlarmDateWeekDaySel set to day, this parameter  must be a 
 182:Drivers/STM32L0xx_HAL_Driver/Inc/stm32l0xx_ll_rtc.h **** 
 183:Drivers/STM32L0xx_HAL_Driver/Inc/stm32l0xx_ll_rtc.h ****                                       This feature can be modified afterwards using unitary functio
 184:Drivers/STM32L0xx_HAL_Driver/Inc/stm32l0xx_ll_rtc.h ****                                       for ALARM A or @ref LL_RTC_ALMB_SetDay() for ALARM B.
 185:Drivers/STM32L0xx_HAL_Driver/Inc/stm32l0xx_ll_rtc.h **** 
 186:Drivers/STM32L0xx_HAL_Driver/Inc/stm32l0xx_ll_rtc.h ****                                       If AlarmDateWeekDaySel set to Weekday, this parameter can be 
 187:Drivers/STM32L0xx_HAL_Driver/Inc/stm32l0xx_ll_rtc.h **** 
 188:Drivers/STM32L0xx_HAL_Driver/Inc/stm32l0xx_ll_rtc.h ****                                       This feature can be modified afterwards using unitary functio
 189:Drivers/STM32L0xx_HAL_Driver/Inc/stm32l0xx_ll_rtc.h ****                                       for ALARM A or @ref LL_RTC_ALMB_SetWeekDay() for ALARM B.
 190:Drivers/STM32L0xx_HAL_Driver/Inc/stm32l0xx_ll_rtc.h ****                                  */
 191:Drivers/STM32L0xx_HAL_Driver/Inc/stm32l0xx_ll_rtc.h **** } LL_RTC_AlarmTypeDef;
 192:Drivers/STM32L0xx_HAL_Driver/Inc/stm32l0xx_ll_rtc.h **** 
 193:Drivers/STM32L0xx_HAL_Driver/Inc/stm32l0xx_ll_rtc.h **** /**
 194:Drivers/STM32L0xx_HAL_Driver/Inc/stm32l0xx_ll_rtc.h ****   * @}
 195:Drivers/STM32L0xx_HAL_Driver/Inc/stm32l0xx_ll_rtc.h ****   */
 196:Drivers/STM32L0xx_HAL_Driver/Inc/stm32l0xx_ll_rtc.h **** #endif /* USE_FULL_LL_DRIVER */
 197:Drivers/STM32L0xx_HAL_Driver/Inc/stm32l0xx_ll_rtc.h **** 
 198:Drivers/STM32L0xx_HAL_Driver/Inc/stm32l0xx_ll_rtc.h **** /* Exported constants --------------------------------------------------------*/
 199:Drivers/STM32L0xx_HAL_Driver/Inc/stm32l0xx_ll_rtc.h **** /** @defgroup RTC_LL_Exported_Constants RTC Exported Constants
 200:Drivers/STM32L0xx_HAL_Driver/Inc/stm32l0xx_ll_rtc.h ****   * @{
 201:Drivers/STM32L0xx_HAL_Driver/Inc/stm32l0xx_ll_rtc.h ****   */
 202:Drivers/STM32L0xx_HAL_Driver/Inc/stm32l0xx_ll_rtc.h **** 
 203:Drivers/STM32L0xx_HAL_Driver/Inc/stm32l0xx_ll_rtc.h **** #if defined(USE_FULL_LL_DRIVER)
 204:Drivers/STM32L0xx_HAL_Driver/Inc/stm32l0xx_ll_rtc.h **** /** @defgroup RTC_LL_EC_FORMAT FORMAT
 205:Drivers/STM32L0xx_HAL_Driver/Inc/stm32l0xx_ll_rtc.h ****   * @{
 206:Drivers/STM32L0xx_HAL_Driver/Inc/stm32l0xx_ll_rtc.h ****   */
 207:Drivers/STM32L0xx_HAL_Driver/Inc/stm32l0xx_ll_rtc.h **** #define LL_RTC_FORMAT_BIN                  0x00000000U /*!< Binary data format */
 208:Drivers/STM32L0xx_HAL_Driver/Inc/stm32l0xx_ll_rtc.h **** #define LL_RTC_FORMAT_BCD                  0x00000001U /*!< BCD data format */
 209:Drivers/STM32L0xx_HAL_Driver/Inc/stm32l0xx_ll_rtc.h **** /**
 210:Drivers/STM32L0xx_HAL_Driver/Inc/stm32l0xx_ll_rtc.h ****   * @}
 211:Drivers/STM32L0xx_HAL_Driver/Inc/stm32l0xx_ll_rtc.h ****   */
 212:Drivers/STM32L0xx_HAL_Driver/Inc/stm32l0xx_ll_rtc.h **** 
 213:Drivers/STM32L0xx_HAL_Driver/Inc/stm32l0xx_ll_rtc.h **** /** @defgroup RTC_LL_EC_ALMA_WEEKDAY_SELECTION RTC Alarm A Date WeekDay
 214:Drivers/STM32L0xx_HAL_Driver/Inc/stm32l0xx_ll_rtc.h ****   * @{
 215:Drivers/STM32L0xx_HAL_Driver/Inc/stm32l0xx_ll_rtc.h ****   */
 216:Drivers/STM32L0xx_HAL_Driver/Inc/stm32l0xx_ll_rtc.h **** #define LL_RTC_ALMA_DATEWEEKDAYSEL_DATE    0x00000000U             /*!< Alarm A Date is selected */
 217:Drivers/STM32L0xx_HAL_Driver/Inc/stm32l0xx_ll_rtc.h **** #define LL_RTC_ALMA_DATEWEEKDAYSEL_WEEKDAY RTC_ALRMAR_WDSEL        /*!< Alarm A WeekDay is selected
 218:Drivers/STM32L0xx_HAL_Driver/Inc/stm32l0xx_ll_rtc.h **** /**
 219:Drivers/STM32L0xx_HAL_Driver/Inc/stm32l0xx_ll_rtc.h ****   * @}
 220:Drivers/STM32L0xx_HAL_Driver/Inc/stm32l0xx_ll_rtc.h ****   */
 221:Drivers/STM32L0xx_HAL_Driver/Inc/stm32l0xx_ll_rtc.h **** 
 222:Drivers/STM32L0xx_HAL_Driver/Inc/stm32l0xx_ll_rtc.h **** /** @defgroup RTC_LL_EC_ALMB_WEEKDAY_SELECTION RTC Alarm B Date WeekDay
 223:Drivers/STM32L0xx_HAL_Driver/Inc/stm32l0xx_ll_rtc.h ****   * @{
 224:Drivers/STM32L0xx_HAL_Driver/Inc/stm32l0xx_ll_rtc.h ****   */
 225:Drivers/STM32L0xx_HAL_Driver/Inc/stm32l0xx_ll_rtc.h **** #define LL_RTC_ALMB_DATEWEEKDAYSEL_DATE    0x00000000U             /*!< Alarm B Date is selected */
 226:Drivers/STM32L0xx_HAL_Driver/Inc/stm32l0xx_ll_rtc.h **** #define LL_RTC_ALMB_DATEWEEKDAYSEL_WEEKDAY RTC_ALRMBR_WDSEL        /*!< Alarm B WeekDay is selected
 227:Drivers/STM32L0xx_HAL_Driver/Inc/stm32l0xx_ll_rtc.h **** /**
 228:Drivers/STM32L0xx_HAL_Driver/Inc/stm32l0xx_ll_rtc.h ****   * @}
 229:Drivers/STM32L0xx_HAL_Driver/Inc/stm32l0xx_ll_rtc.h ****   */
 230:Drivers/STM32L0xx_HAL_Driver/Inc/stm32l0xx_ll_rtc.h **** 
 231:Drivers/STM32L0xx_HAL_Driver/Inc/stm32l0xx_ll_rtc.h **** #endif /* USE_FULL_LL_DRIVER */
 232:Drivers/STM32L0xx_HAL_Driver/Inc/stm32l0xx_ll_rtc.h **** 
 233:Drivers/STM32L0xx_HAL_Driver/Inc/stm32l0xx_ll_rtc.h **** /** @defgroup RTC_LL_EC_GET_FLAG Get Flags Defines
 234:Drivers/STM32L0xx_HAL_Driver/Inc/stm32l0xx_ll_rtc.h ****   * @brief    Flags defines which can be used with LL_RTC_ReadReg function
 235:Drivers/STM32L0xx_HAL_Driver/Inc/stm32l0xx_ll_rtc.h ****   * @{
 236:Drivers/STM32L0xx_HAL_Driver/Inc/stm32l0xx_ll_rtc.h ****   */
ARM GAS  C:\Users\Nathan\AppData\Local\Temp\ccAQTZu2.s 			page 16


 237:Drivers/STM32L0xx_HAL_Driver/Inc/stm32l0xx_ll_rtc.h **** #define LL_RTC_ISR_RECALPF                 RTC_ISR_RECALPF
 238:Drivers/STM32L0xx_HAL_Driver/Inc/stm32l0xx_ll_rtc.h **** #if defined(RTC_TAMPER3_SUPPORT)
 239:Drivers/STM32L0xx_HAL_Driver/Inc/stm32l0xx_ll_rtc.h **** #define LL_RTC_ISR_TAMP3F                  RTC_ISR_TAMP3F
 240:Drivers/STM32L0xx_HAL_Driver/Inc/stm32l0xx_ll_rtc.h **** #endif /* RTC_TAMPER3_SUPPORT */
 241:Drivers/STM32L0xx_HAL_Driver/Inc/stm32l0xx_ll_rtc.h **** #define LL_RTC_ISR_TAMP2F                  RTC_ISR_TAMP2F
 242:Drivers/STM32L0xx_HAL_Driver/Inc/stm32l0xx_ll_rtc.h **** #if defined(RTC_TAMPER1_SUPPORT)
 243:Drivers/STM32L0xx_HAL_Driver/Inc/stm32l0xx_ll_rtc.h **** #define LL_RTC_ISR_TAMP1F                  RTC_ISR_TAMP1F
 244:Drivers/STM32L0xx_HAL_Driver/Inc/stm32l0xx_ll_rtc.h **** #endif /* RTC_TAMPER1_SUPPORT */
 245:Drivers/STM32L0xx_HAL_Driver/Inc/stm32l0xx_ll_rtc.h **** #define LL_RTC_ISR_TSOVF                   RTC_ISR_TSOVF
 246:Drivers/STM32L0xx_HAL_Driver/Inc/stm32l0xx_ll_rtc.h **** #define LL_RTC_ISR_TSF                     RTC_ISR_TSF
 247:Drivers/STM32L0xx_HAL_Driver/Inc/stm32l0xx_ll_rtc.h **** #define LL_RTC_ISR_WUTF                    RTC_ISR_WUTF
 248:Drivers/STM32L0xx_HAL_Driver/Inc/stm32l0xx_ll_rtc.h **** #define LL_RTC_ISR_ALRBF                   RTC_ISR_ALRBF
 249:Drivers/STM32L0xx_HAL_Driver/Inc/stm32l0xx_ll_rtc.h **** #define LL_RTC_ISR_ALRAF                   RTC_ISR_ALRAF
 250:Drivers/STM32L0xx_HAL_Driver/Inc/stm32l0xx_ll_rtc.h **** #define LL_RTC_ISR_INITF                   RTC_ISR_INITF
 251:Drivers/STM32L0xx_HAL_Driver/Inc/stm32l0xx_ll_rtc.h **** #define LL_RTC_ISR_RSF                     RTC_ISR_RSF
 252:Drivers/STM32L0xx_HAL_Driver/Inc/stm32l0xx_ll_rtc.h **** #define LL_RTC_ISR_INITS                   RTC_ISR_INITS
 253:Drivers/STM32L0xx_HAL_Driver/Inc/stm32l0xx_ll_rtc.h **** #define LL_RTC_ISR_SHPF                    RTC_ISR_SHPF
 254:Drivers/STM32L0xx_HAL_Driver/Inc/stm32l0xx_ll_rtc.h **** #define LL_RTC_ISR_WUTWF                   RTC_ISR_WUTWF
 255:Drivers/STM32L0xx_HAL_Driver/Inc/stm32l0xx_ll_rtc.h **** #define LL_RTC_ISR_ALRBWF                  RTC_ISR_ALRBWF
 256:Drivers/STM32L0xx_HAL_Driver/Inc/stm32l0xx_ll_rtc.h **** #define LL_RTC_ISR_ALRAWF                  RTC_ISR_ALRAWF
 257:Drivers/STM32L0xx_HAL_Driver/Inc/stm32l0xx_ll_rtc.h **** /**
 258:Drivers/STM32L0xx_HAL_Driver/Inc/stm32l0xx_ll_rtc.h ****   * @}
 259:Drivers/STM32L0xx_HAL_Driver/Inc/stm32l0xx_ll_rtc.h ****   */
 260:Drivers/STM32L0xx_HAL_Driver/Inc/stm32l0xx_ll_rtc.h **** 
 261:Drivers/STM32L0xx_HAL_Driver/Inc/stm32l0xx_ll_rtc.h **** /** @defgroup RTC_LL_EC_IT IT Defines
 262:Drivers/STM32L0xx_HAL_Driver/Inc/stm32l0xx_ll_rtc.h ****   * @brief    IT defines which can be used with LL_RTC_ReadReg and  LL_RTC_WriteReg functions
 263:Drivers/STM32L0xx_HAL_Driver/Inc/stm32l0xx_ll_rtc.h ****   * @{
 264:Drivers/STM32L0xx_HAL_Driver/Inc/stm32l0xx_ll_rtc.h ****   */
 265:Drivers/STM32L0xx_HAL_Driver/Inc/stm32l0xx_ll_rtc.h **** #define LL_RTC_CR_TSIE                     RTC_CR_TSIE
 266:Drivers/STM32L0xx_HAL_Driver/Inc/stm32l0xx_ll_rtc.h **** #define LL_RTC_CR_WUTIE                    RTC_CR_WUTIE
 267:Drivers/STM32L0xx_HAL_Driver/Inc/stm32l0xx_ll_rtc.h **** #define LL_RTC_CR_ALRBIE                   RTC_CR_ALRBIE
 268:Drivers/STM32L0xx_HAL_Driver/Inc/stm32l0xx_ll_rtc.h **** #define LL_RTC_CR_ALRAIE                   RTC_CR_ALRAIE
 269:Drivers/STM32L0xx_HAL_Driver/Inc/stm32l0xx_ll_rtc.h **** #if defined(RTC_TAMPER3_SUPPORT)
 270:Drivers/STM32L0xx_HAL_Driver/Inc/stm32l0xx_ll_rtc.h **** #define LL_RTC_TAMPCR_TAMP3IE              RTC_TAMPCR_TAMP3IE
 271:Drivers/STM32L0xx_HAL_Driver/Inc/stm32l0xx_ll_rtc.h **** #endif /* RTC_TAMPER3_SUPPORT */
 272:Drivers/STM32L0xx_HAL_Driver/Inc/stm32l0xx_ll_rtc.h **** #define LL_RTC_TAMPCR_TAMP2IE              RTC_TAMPCR_TAMP2IE
 273:Drivers/STM32L0xx_HAL_Driver/Inc/stm32l0xx_ll_rtc.h **** #if defined(RTC_TAMPER1_SUPPORT)
 274:Drivers/STM32L0xx_HAL_Driver/Inc/stm32l0xx_ll_rtc.h **** #define LL_RTC_TAMPCR_TAMP1IE              RTC_TAMPCR_TAMP1IE
 275:Drivers/STM32L0xx_HAL_Driver/Inc/stm32l0xx_ll_rtc.h **** #endif /* RTC_TAMPER1_SUPPORT */
 276:Drivers/STM32L0xx_HAL_Driver/Inc/stm32l0xx_ll_rtc.h **** #define LL_RTC_TAMPCR_TAMPIE               RTC_TAMPCR_TAMPIE
 277:Drivers/STM32L0xx_HAL_Driver/Inc/stm32l0xx_ll_rtc.h **** /**
 278:Drivers/STM32L0xx_HAL_Driver/Inc/stm32l0xx_ll_rtc.h ****   * @}
 279:Drivers/STM32L0xx_HAL_Driver/Inc/stm32l0xx_ll_rtc.h ****   */
 280:Drivers/STM32L0xx_HAL_Driver/Inc/stm32l0xx_ll_rtc.h **** 
 281:Drivers/STM32L0xx_HAL_Driver/Inc/stm32l0xx_ll_rtc.h **** /** @defgroup RTC_LL_EC_WEEKDAY  WEEK DAY
 282:Drivers/STM32L0xx_HAL_Driver/Inc/stm32l0xx_ll_rtc.h ****   * @{
 283:Drivers/STM32L0xx_HAL_Driver/Inc/stm32l0xx_ll_rtc.h ****   */
 284:Drivers/STM32L0xx_HAL_Driver/Inc/stm32l0xx_ll_rtc.h **** #define LL_RTC_WEEKDAY_MONDAY              ((uint8_t)0x01U) /*!< Monday    */
 285:Drivers/STM32L0xx_HAL_Driver/Inc/stm32l0xx_ll_rtc.h **** #define LL_RTC_WEEKDAY_TUESDAY             ((uint8_t)0x02U) /*!< Tuesday   */
 286:Drivers/STM32L0xx_HAL_Driver/Inc/stm32l0xx_ll_rtc.h **** #define LL_RTC_WEEKDAY_WEDNESDAY           ((uint8_t)0x03U) /*!< Wednesday */
 287:Drivers/STM32L0xx_HAL_Driver/Inc/stm32l0xx_ll_rtc.h **** #define LL_RTC_WEEKDAY_THURSDAY            ((uint8_t)0x04U) /*!< Thrusday  */
 288:Drivers/STM32L0xx_HAL_Driver/Inc/stm32l0xx_ll_rtc.h **** #define LL_RTC_WEEKDAY_FRIDAY              ((uint8_t)0x05U) /*!< Friday    */
 289:Drivers/STM32L0xx_HAL_Driver/Inc/stm32l0xx_ll_rtc.h **** #define LL_RTC_WEEKDAY_SATURDAY            ((uint8_t)0x06U) /*!< Saturday  */
 290:Drivers/STM32L0xx_HAL_Driver/Inc/stm32l0xx_ll_rtc.h **** #define LL_RTC_WEEKDAY_SUNDAY              ((uint8_t)0x07U) /*!< Sunday    */
 291:Drivers/STM32L0xx_HAL_Driver/Inc/stm32l0xx_ll_rtc.h **** /**
 292:Drivers/STM32L0xx_HAL_Driver/Inc/stm32l0xx_ll_rtc.h ****   * @}
 293:Drivers/STM32L0xx_HAL_Driver/Inc/stm32l0xx_ll_rtc.h ****   */
ARM GAS  C:\Users\Nathan\AppData\Local\Temp\ccAQTZu2.s 			page 17


 294:Drivers/STM32L0xx_HAL_Driver/Inc/stm32l0xx_ll_rtc.h **** 
 295:Drivers/STM32L0xx_HAL_Driver/Inc/stm32l0xx_ll_rtc.h **** /** @defgroup RTC_LL_EC_MONTH  MONTH
 296:Drivers/STM32L0xx_HAL_Driver/Inc/stm32l0xx_ll_rtc.h ****   * @{
 297:Drivers/STM32L0xx_HAL_Driver/Inc/stm32l0xx_ll_rtc.h ****   */
 298:Drivers/STM32L0xx_HAL_Driver/Inc/stm32l0xx_ll_rtc.h **** #define LL_RTC_MONTH_JANUARY               ((uint8_t)0x01U)  /*!< January   */
 299:Drivers/STM32L0xx_HAL_Driver/Inc/stm32l0xx_ll_rtc.h **** #define LL_RTC_MONTH_FEBRUARY              ((uint8_t)0x02U)  /*!< February  */
 300:Drivers/STM32L0xx_HAL_Driver/Inc/stm32l0xx_ll_rtc.h **** #define LL_RTC_MONTH_MARCH                 ((uint8_t)0x03U)  /*!< March     */
 301:Drivers/STM32L0xx_HAL_Driver/Inc/stm32l0xx_ll_rtc.h **** #define LL_RTC_MONTH_APRIL                 ((uint8_t)0x04U)  /*!< April     */
 302:Drivers/STM32L0xx_HAL_Driver/Inc/stm32l0xx_ll_rtc.h **** #define LL_RTC_MONTH_MAY                   ((uint8_t)0x05U)  /*!< May       */
 303:Drivers/STM32L0xx_HAL_Driver/Inc/stm32l0xx_ll_rtc.h **** #define LL_RTC_MONTH_JUNE                  ((uint8_t)0x06U)  /*!< June      */
 304:Drivers/STM32L0xx_HAL_Driver/Inc/stm32l0xx_ll_rtc.h **** #define LL_RTC_MONTH_JULY                  ((uint8_t)0x07U)  /*!< July      */
 305:Drivers/STM32L0xx_HAL_Driver/Inc/stm32l0xx_ll_rtc.h **** #define LL_RTC_MONTH_AUGUST                ((uint8_t)0x08U)  /*!< August    */
 306:Drivers/STM32L0xx_HAL_Driver/Inc/stm32l0xx_ll_rtc.h **** #define LL_RTC_MONTH_SEPTEMBER             ((uint8_t)0x09U)  /*!< September */
 307:Drivers/STM32L0xx_HAL_Driver/Inc/stm32l0xx_ll_rtc.h **** #define LL_RTC_MONTH_OCTOBER               ((uint8_t)0x10U)  /*!< October   */
 308:Drivers/STM32L0xx_HAL_Driver/Inc/stm32l0xx_ll_rtc.h **** #define LL_RTC_MONTH_NOVEMBER              ((uint8_t)0x11U)  /*!< November  */
 309:Drivers/STM32L0xx_HAL_Driver/Inc/stm32l0xx_ll_rtc.h **** #define LL_RTC_MONTH_DECEMBER              ((uint8_t)0x12U)  /*!< December  */
 310:Drivers/STM32L0xx_HAL_Driver/Inc/stm32l0xx_ll_rtc.h **** /**
 311:Drivers/STM32L0xx_HAL_Driver/Inc/stm32l0xx_ll_rtc.h ****   * @}
 312:Drivers/STM32L0xx_HAL_Driver/Inc/stm32l0xx_ll_rtc.h ****   */
 313:Drivers/STM32L0xx_HAL_Driver/Inc/stm32l0xx_ll_rtc.h **** 
 314:Drivers/STM32L0xx_HAL_Driver/Inc/stm32l0xx_ll_rtc.h **** /** @defgroup RTC_LL_EC_HOURFORMAT  HOUR FORMAT
 315:Drivers/STM32L0xx_HAL_Driver/Inc/stm32l0xx_ll_rtc.h ****   * @{
 316:Drivers/STM32L0xx_HAL_Driver/Inc/stm32l0xx_ll_rtc.h ****   */
 317:Drivers/STM32L0xx_HAL_Driver/Inc/stm32l0xx_ll_rtc.h **** #define LL_RTC_HOURFORMAT_24HOUR           0x00000000U           /*!< 24 hour/day format */
 318:Drivers/STM32L0xx_HAL_Driver/Inc/stm32l0xx_ll_rtc.h **** #define LL_RTC_HOURFORMAT_AMPM             RTC_CR_FMT            /*!< AM/PM hour format */
 319:Drivers/STM32L0xx_HAL_Driver/Inc/stm32l0xx_ll_rtc.h **** /**
 320:Drivers/STM32L0xx_HAL_Driver/Inc/stm32l0xx_ll_rtc.h ****   * @}
 321:Drivers/STM32L0xx_HAL_Driver/Inc/stm32l0xx_ll_rtc.h ****   */
 322:Drivers/STM32L0xx_HAL_Driver/Inc/stm32l0xx_ll_rtc.h **** 
 323:Drivers/STM32L0xx_HAL_Driver/Inc/stm32l0xx_ll_rtc.h **** /** @defgroup RTC_LL_EC_ALARMOUT  ALARM OUTPUT
 324:Drivers/STM32L0xx_HAL_Driver/Inc/stm32l0xx_ll_rtc.h ****   * @{
 325:Drivers/STM32L0xx_HAL_Driver/Inc/stm32l0xx_ll_rtc.h ****   */
 326:Drivers/STM32L0xx_HAL_Driver/Inc/stm32l0xx_ll_rtc.h **** #define LL_RTC_ALARMOUT_DISABLE            0x00000000U             /*!< Output disabled */
 327:Drivers/STM32L0xx_HAL_Driver/Inc/stm32l0xx_ll_rtc.h **** #define LL_RTC_ALARMOUT_ALMA               RTC_CR_OSEL_0           /*!< Alarm A output enabled */
 328:Drivers/STM32L0xx_HAL_Driver/Inc/stm32l0xx_ll_rtc.h **** #define LL_RTC_ALARMOUT_ALMB               RTC_CR_OSEL_1           /*!< Alarm B output enabled */
 329:Drivers/STM32L0xx_HAL_Driver/Inc/stm32l0xx_ll_rtc.h **** #define LL_RTC_ALARMOUT_WAKEUP             RTC_CR_OSEL             /*!< Wakeup output enabled */
 330:Drivers/STM32L0xx_HAL_Driver/Inc/stm32l0xx_ll_rtc.h **** /**
 331:Drivers/STM32L0xx_HAL_Driver/Inc/stm32l0xx_ll_rtc.h ****   * @}
 332:Drivers/STM32L0xx_HAL_Driver/Inc/stm32l0xx_ll_rtc.h ****   */
 333:Drivers/STM32L0xx_HAL_Driver/Inc/stm32l0xx_ll_rtc.h **** 
 334:Drivers/STM32L0xx_HAL_Driver/Inc/stm32l0xx_ll_rtc.h **** /** @defgroup RTC_LL_EC_ALARM_OUTPUTTYPE  ALARM OUTPUT TYPE
 335:Drivers/STM32L0xx_HAL_Driver/Inc/stm32l0xx_ll_rtc.h ****   * @{
 336:Drivers/STM32L0xx_HAL_Driver/Inc/stm32l0xx_ll_rtc.h ****   */
 337:Drivers/STM32L0xx_HAL_Driver/Inc/stm32l0xx_ll_rtc.h **** #define LL_RTC_ALARM_OUTPUTTYPE_OPENDRAIN  0x00000000U                          /*!< RTC_ALARM, whe
 338:Drivers/STM32L0xx_HAL_Driver/Inc/stm32l0xx_ll_rtc.h **** #define LL_RTC_ALARM_OUTPUTTYPE_PUSHPULL   RTC_OR_ALARMOUTTYPE /*!< RTC_ALARM, when mapped on PC13,
 339:Drivers/STM32L0xx_HAL_Driver/Inc/stm32l0xx_ll_rtc.h **** /**
 340:Drivers/STM32L0xx_HAL_Driver/Inc/stm32l0xx_ll_rtc.h ****   * @}
 341:Drivers/STM32L0xx_HAL_Driver/Inc/stm32l0xx_ll_rtc.h ****   */
 342:Drivers/STM32L0xx_HAL_Driver/Inc/stm32l0xx_ll_rtc.h **** 
 343:Drivers/STM32L0xx_HAL_Driver/Inc/stm32l0xx_ll_rtc.h **** /** @defgroup RTC_LL_EC_OUTPUTPOLARITY_PIN  OUTPUT POLARITY PIN
 344:Drivers/STM32L0xx_HAL_Driver/Inc/stm32l0xx_ll_rtc.h ****   * @{
 345:Drivers/STM32L0xx_HAL_Driver/Inc/stm32l0xx_ll_rtc.h ****   */
 346:Drivers/STM32L0xx_HAL_Driver/Inc/stm32l0xx_ll_rtc.h **** #define LL_RTC_OUTPUTPOLARITY_PIN_HIGH     0x00000000U           /*!< Pin is high when ALRAF/ALRBF/
 347:Drivers/STM32L0xx_HAL_Driver/Inc/stm32l0xx_ll_rtc.h **** #define LL_RTC_OUTPUTPOLARITY_PIN_LOW      RTC_CR_POL            /*!< Pin is low when ALRAF/ALRBF/W
 348:Drivers/STM32L0xx_HAL_Driver/Inc/stm32l0xx_ll_rtc.h **** /**
 349:Drivers/STM32L0xx_HAL_Driver/Inc/stm32l0xx_ll_rtc.h ****   * @}
 350:Drivers/STM32L0xx_HAL_Driver/Inc/stm32l0xx_ll_rtc.h ****   */
ARM GAS  C:\Users\Nathan\AppData\Local\Temp\ccAQTZu2.s 			page 18


 351:Drivers/STM32L0xx_HAL_Driver/Inc/stm32l0xx_ll_rtc.h **** 
 352:Drivers/STM32L0xx_HAL_Driver/Inc/stm32l0xx_ll_rtc.h **** /** @defgroup RTC_LL_EC_TIME_FORMAT TIME FORMAT
 353:Drivers/STM32L0xx_HAL_Driver/Inc/stm32l0xx_ll_rtc.h ****   * @{
 354:Drivers/STM32L0xx_HAL_Driver/Inc/stm32l0xx_ll_rtc.h ****   */
 355:Drivers/STM32L0xx_HAL_Driver/Inc/stm32l0xx_ll_rtc.h **** #define LL_RTC_TIME_FORMAT_AM_OR_24        0x00000000U           /*!< AM or 24-hour format */
 356:Drivers/STM32L0xx_HAL_Driver/Inc/stm32l0xx_ll_rtc.h **** #define LL_RTC_TIME_FORMAT_PM              RTC_TR_PM             /*!< PM */
 357:Drivers/STM32L0xx_HAL_Driver/Inc/stm32l0xx_ll_rtc.h **** /**
 358:Drivers/STM32L0xx_HAL_Driver/Inc/stm32l0xx_ll_rtc.h ****   * @}
 359:Drivers/STM32L0xx_HAL_Driver/Inc/stm32l0xx_ll_rtc.h ****   */
 360:Drivers/STM32L0xx_HAL_Driver/Inc/stm32l0xx_ll_rtc.h **** 
 361:Drivers/STM32L0xx_HAL_Driver/Inc/stm32l0xx_ll_rtc.h **** /** @defgroup RTC_LL_EC_SHIFT_SECOND  SHIFT SECOND
 362:Drivers/STM32L0xx_HAL_Driver/Inc/stm32l0xx_ll_rtc.h ****   * @{
 363:Drivers/STM32L0xx_HAL_Driver/Inc/stm32l0xx_ll_rtc.h ****   */
 364:Drivers/STM32L0xx_HAL_Driver/Inc/stm32l0xx_ll_rtc.h **** #define LL_RTC_SHIFT_SECOND_DELAY          0x00000000U           /* Delay (seconds) = SUBFS / (PRED
 365:Drivers/STM32L0xx_HAL_Driver/Inc/stm32l0xx_ll_rtc.h **** #define LL_RTC_SHIFT_SECOND_ADVANCE        RTC_SHIFTR_ADD1S      /* Advance (seconds) = (1 - (SUBFS
 366:Drivers/STM32L0xx_HAL_Driver/Inc/stm32l0xx_ll_rtc.h **** /**
 367:Drivers/STM32L0xx_HAL_Driver/Inc/stm32l0xx_ll_rtc.h ****   * @}
 368:Drivers/STM32L0xx_HAL_Driver/Inc/stm32l0xx_ll_rtc.h ****   */
 369:Drivers/STM32L0xx_HAL_Driver/Inc/stm32l0xx_ll_rtc.h **** 
 370:Drivers/STM32L0xx_HAL_Driver/Inc/stm32l0xx_ll_rtc.h **** /** @defgroup RTC_LL_EC_ALMA_MASK  ALARMA MASK
 371:Drivers/STM32L0xx_HAL_Driver/Inc/stm32l0xx_ll_rtc.h ****   * @{
 372:Drivers/STM32L0xx_HAL_Driver/Inc/stm32l0xx_ll_rtc.h ****   */
 373:Drivers/STM32L0xx_HAL_Driver/Inc/stm32l0xx_ll_rtc.h **** #define LL_RTC_ALMA_MASK_NONE              0x00000000U             /*!< No masks applied on Alarm A
 374:Drivers/STM32L0xx_HAL_Driver/Inc/stm32l0xx_ll_rtc.h **** #define LL_RTC_ALMA_MASK_DATEWEEKDAY       RTC_ALRMAR_MSK4         /*!< Date/day do not care in Ala
 375:Drivers/STM32L0xx_HAL_Driver/Inc/stm32l0xx_ll_rtc.h **** #define LL_RTC_ALMA_MASK_HOURS             RTC_ALRMAR_MSK3         /*!< Hours do not care in Alarm 
 376:Drivers/STM32L0xx_HAL_Driver/Inc/stm32l0xx_ll_rtc.h **** #define LL_RTC_ALMA_MASK_MINUTES           RTC_ALRMAR_MSK2         /*!< Minutes do not care in Alar
 377:Drivers/STM32L0xx_HAL_Driver/Inc/stm32l0xx_ll_rtc.h **** #define LL_RTC_ALMA_MASK_SECONDS           RTC_ALRMAR_MSK1         /*!< Seconds do not care in Alar
 378:Drivers/STM32L0xx_HAL_Driver/Inc/stm32l0xx_ll_rtc.h **** #define LL_RTC_ALMA_MASK_ALL               (RTC_ALRMAR_MSK4 | RTC_ALRMAR_MSK3 | RTC_ALRMAR_MSK2 | R
 379:Drivers/STM32L0xx_HAL_Driver/Inc/stm32l0xx_ll_rtc.h **** /**
 380:Drivers/STM32L0xx_HAL_Driver/Inc/stm32l0xx_ll_rtc.h ****   * @}
 381:Drivers/STM32L0xx_HAL_Driver/Inc/stm32l0xx_ll_rtc.h ****   */
 382:Drivers/STM32L0xx_HAL_Driver/Inc/stm32l0xx_ll_rtc.h **** 
 383:Drivers/STM32L0xx_HAL_Driver/Inc/stm32l0xx_ll_rtc.h **** /** @defgroup RTC_LL_EC_ALMA_TIME_FORMAT  ALARMA TIME FORMAT
 384:Drivers/STM32L0xx_HAL_Driver/Inc/stm32l0xx_ll_rtc.h ****   * @{
 385:Drivers/STM32L0xx_HAL_Driver/Inc/stm32l0xx_ll_rtc.h ****   */
 386:Drivers/STM32L0xx_HAL_Driver/Inc/stm32l0xx_ll_rtc.h **** #define LL_RTC_ALMA_TIME_FORMAT_AM         0x00000000U           /*!< AM or 24-hour format */
 387:Drivers/STM32L0xx_HAL_Driver/Inc/stm32l0xx_ll_rtc.h **** #define LL_RTC_ALMA_TIME_FORMAT_PM         RTC_ALRMAR_PM         /*!< PM */
 388:Drivers/STM32L0xx_HAL_Driver/Inc/stm32l0xx_ll_rtc.h **** /**
 389:Drivers/STM32L0xx_HAL_Driver/Inc/stm32l0xx_ll_rtc.h ****   * @}
 390:Drivers/STM32L0xx_HAL_Driver/Inc/stm32l0xx_ll_rtc.h ****   */
 391:Drivers/STM32L0xx_HAL_Driver/Inc/stm32l0xx_ll_rtc.h **** 
 392:Drivers/STM32L0xx_HAL_Driver/Inc/stm32l0xx_ll_rtc.h **** /** @defgroup RTC_LL_EC_ALMB_MASK  ALARMB MASK
 393:Drivers/STM32L0xx_HAL_Driver/Inc/stm32l0xx_ll_rtc.h ****   * @{
 394:Drivers/STM32L0xx_HAL_Driver/Inc/stm32l0xx_ll_rtc.h ****   */
 395:Drivers/STM32L0xx_HAL_Driver/Inc/stm32l0xx_ll_rtc.h **** #define LL_RTC_ALMB_MASK_NONE              0x00000000U             /*!< No masks applied on Alarm B
 396:Drivers/STM32L0xx_HAL_Driver/Inc/stm32l0xx_ll_rtc.h **** #define LL_RTC_ALMB_MASK_DATEWEEKDAY       RTC_ALRMBR_MSK4         /*!< Date/day do not care in Ala
 397:Drivers/STM32L0xx_HAL_Driver/Inc/stm32l0xx_ll_rtc.h **** #define LL_RTC_ALMB_MASK_HOURS             RTC_ALRMBR_MSK3         /*!< Hours do not care in Alarm 
 398:Drivers/STM32L0xx_HAL_Driver/Inc/stm32l0xx_ll_rtc.h **** #define LL_RTC_ALMB_MASK_MINUTES           RTC_ALRMBR_MSK2         /*!< Minutes do not care in Alar
 399:Drivers/STM32L0xx_HAL_Driver/Inc/stm32l0xx_ll_rtc.h **** #define LL_RTC_ALMB_MASK_SECONDS           RTC_ALRMBR_MSK1         /*!< Seconds do not care in Alar
 400:Drivers/STM32L0xx_HAL_Driver/Inc/stm32l0xx_ll_rtc.h **** #define LL_RTC_ALMB_MASK_ALL               (RTC_ALRMBR_MSK4 | RTC_ALRMBR_MSK3 | RTC_ALRMBR_MSK2 | R
 401:Drivers/STM32L0xx_HAL_Driver/Inc/stm32l0xx_ll_rtc.h **** /**
 402:Drivers/STM32L0xx_HAL_Driver/Inc/stm32l0xx_ll_rtc.h ****   * @}
 403:Drivers/STM32L0xx_HAL_Driver/Inc/stm32l0xx_ll_rtc.h ****   */
 404:Drivers/STM32L0xx_HAL_Driver/Inc/stm32l0xx_ll_rtc.h **** 
 405:Drivers/STM32L0xx_HAL_Driver/Inc/stm32l0xx_ll_rtc.h **** /** @defgroup RTC_LL_EC_ALMB_TIME_FORMAT  ALARMB TIME FORMAT
 406:Drivers/STM32L0xx_HAL_Driver/Inc/stm32l0xx_ll_rtc.h ****   * @{
 407:Drivers/STM32L0xx_HAL_Driver/Inc/stm32l0xx_ll_rtc.h ****   */
ARM GAS  C:\Users\Nathan\AppData\Local\Temp\ccAQTZu2.s 			page 19


 408:Drivers/STM32L0xx_HAL_Driver/Inc/stm32l0xx_ll_rtc.h **** #define LL_RTC_ALMB_TIME_FORMAT_AM         0x00000000U           /*!< AM or 24-hour format */
 409:Drivers/STM32L0xx_HAL_Driver/Inc/stm32l0xx_ll_rtc.h **** #define LL_RTC_ALMB_TIME_FORMAT_PM         RTC_ALRMBR_PM         /*!< PM */
 410:Drivers/STM32L0xx_HAL_Driver/Inc/stm32l0xx_ll_rtc.h **** /**
 411:Drivers/STM32L0xx_HAL_Driver/Inc/stm32l0xx_ll_rtc.h ****   * @}
 412:Drivers/STM32L0xx_HAL_Driver/Inc/stm32l0xx_ll_rtc.h ****   */
 413:Drivers/STM32L0xx_HAL_Driver/Inc/stm32l0xx_ll_rtc.h **** 
 414:Drivers/STM32L0xx_HAL_Driver/Inc/stm32l0xx_ll_rtc.h **** /** @defgroup RTC_LL_EC_TIMESTAMP_EDGE  TIMESTAMP EDGE
 415:Drivers/STM32L0xx_HAL_Driver/Inc/stm32l0xx_ll_rtc.h ****   * @{
 416:Drivers/STM32L0xx_HAL_Driver/Inc/stm32l0xx_ll_rtc.h ****   */
 417:Drivers/STM32L0xx_HAL_Driver/Inc/stm32l0xx_ll_rtc.h **** #define LL_RTC_TIMESTAMP_EDGE_RISING       0x00000000U           /*!< RTC_TS input rising edge gene
 418:Drivers/STM32L0xx_HAL_Driver/Inc/stm32l0xx_ll_rtc.h **** #define LL_RTC_TIMESTAMP_EDGE_FALLING      RTC_CR_TSEDGE         /*!< RTC_TS input falling edge gen
 419:Drivers/STM32L0xx_HAL_Driver/Inc/stm32l0xx_ll_rtc.h **** /**
 420:Drivers/STM32L0xx_HAL_Driver/Inc/stm32l0xx_ll_rtc.h ****   * @}
 421:Drivers/STM32L0xx_HAL_Driver/Inc/stm32l0xx_ll_rtc.h ****   */
 422:Drivers/STM32L0xx_HAL_Driver/Inc/stm32l0xx_ll_rtc.h **** 
 423:Drivers/STM32L0xx_HAL_Driver/Inc/stm32l0xx_ll_rtc.h **** /** @defgroup RTC_LL_EC_TS_TIME_FORMAT  TIMESTAMP TIME FORMAT
 424:Drivers/STM32L0xx_HAL_Driver/Inc/stm32l0xx_ll_rtc.h ****   * @{
 425:Drivers/STM32L0xx_HAL_Driver/Inc/stm32l0xx_ll_rtc.h ****   */
 426:Drivers/STM32L0xx_HAL_Driver/Inc/stm32l0xx_ll_rtc.h **** #define LL_RTC_TS_TIME_FORMAT_AM           0x00000000U           /*!< AM or 24-hour format */
 427:Drivers/STM32L0xx_HAL_Driver/Inc/stm32l0xx_ll_rtc.h **** #define LL_RTC_TS_TIME_FORMAT_PM           RTC_TSTR_PM           /*!< PM */
 428:Drivers/STM32L0xx_HAL_Driver/Inc/stm32l0xx_ll_rtc.h **** /**
 429:Drivers/STM32L0xx_HAL_Driver/Inc/stm32l0xx_ll_rtc.h ****   * @}
 430:Drivers/STM32L0xx_HAL_Driver/Inc/stm32l0xx_ll_rtc.h ****   */
 431:Drivers/STM32L0xx_HAL_Driver/Inc/stm32l0xx_ll_rtc.h **** 
 432:Drivers/STM32L0xx_HAL_Driver/Inc/stm32l0xx_ll_rtc.h **** /** @defgroup RTC_LL_EC_TAMPER  TAMPER
 433:Drivers/STM32L0xx_HAL_Driver/Inc/stm32l0xx_ll_rtc.h ****   * @{
 434:Drivers/STM32L0xx_HAL_Driver/Inc/stm32l0xx_ll_rtc.h ****   */
 435:Drivers/STM32L0xx_HAL_Driver/Inc/stm32l0xx_ll_rtc.h **** #if defined(RTC_TAMPER1_SUPPORT)
 436:Drivers/STM32L0xx_HAL_Driver/Inc/stm32l0xx_ll_rtc.h **** #define LL_RTC_TAMPER_1                    RTC_TAMPCR_TAMP1E /*!< RTC_TAMP1 input detection */
 437:Drivers/STM32L0xx_HAL_Driver/Inc/stm32l0xx_ll_rtc.h **** #endif /* RTC_TAMPER1_SUPPORT */
 438:Drivers/STM32L0xx_HAL_Driver/Inc/stm32l0xx_ll_rtc.h **** #define LL_RTC_TAMPER_2                    RTC_TAMPCR_TAMP2E /*!< RTC_TAMP2 input detection */
 439:Drivers/STM32L0xx_HAL_Driver/Inc/stm32l0xx_ll_rtc.h **** #if defined(RTC_TAMPER3_SUPPORT)
 440:Drivers/STM32L0xx_HAL_Driver/Inc/stm32l0xx_ll_rtc.h **** #define LL_RTC_TAMPER_3                    RTC_TAMPCR_TAMP3E /*!< RTC_TAMP3 input detection */
 441:Drivers/STM32L0xx_HAL_Driver/Inc/stm32l0xx_ll_rtc.h **** #endif /* RTC_TAMPER3_SUPPORT */
 442:Drivers/STM32L0xx_HAL_Driver/Inc/stm32l0xx_ll_rtc.h **** /**
 443:Drivers/STM32L0xx_HAL_Driver/Inc/stm32l0xx_ll_rtc.h ****   * @}
 444:Drivers/STM32L0xx_HAL_Driver/Inc/stm32l0xx_ll_rtc.h ****   */
 445:Drivers/STM32L0xx_HAL_Driver/Inc/stm32l0xx_ll_rtc.h **** 
 446:Drivers/STM32L0xx_HAL_Driver/Inc/stm32l0xx_ll_rtc.h **** /** @defgroup RTC_LL_EC_TAMPER_MASK  TAMPER MASK
 447:Drivers/STM32L0xx_HAL_Driver/Inc/stm32l0xx_ll_rtc.h ****   * @{
 448:Drivers/STM32L0xx_HAL_Driver/Inc/stm32l0xx_ll_rtc.h ****   */
 449:Drivers/STM32L0xx_HAL_Driver/Inc/stm32l0xx_ll_rtc.h **** #if defined(RTC_TAMPER1_SUPPORT)
 450:Drivers/STM32L0xx_HAL_Driver/Inc/stm32l0xx_ll_rtc.h **** #define LL_RTC_TAMPER_MASK_TAMPER1         RTC_TAMPCR_TAMP1MF /*!< Tamper 1 event generates a trigg
 451:Drivers/STM32L0xx_HAL_Driver/Inc/stm32l0xx_ll_rtc.h **** #endif /* RTC_TAMPER1_SUPPORT */
 452:Drivers/STM32L0xx_HAL_Driver/Inc/stm32l0xx_ll_rtc.h **** #define LL_RTC_TAMPER_MASK_TAMPER2         RTC_TAMPCR_TAMP2MF /*!< Tamper 2 event generates a trigg
 453:Drivers/STM32L0xx_HAL_Driver/Inc/stm32l0xx_ll_rtc.h **** #if defined(RTC_TAMPER3_SUPPORT)
 454:Drivers/STM32L0xx_HAL_Driver/Inc/stm32l0xx_ll_rtc.h **** #define LL_RTC_TAMPER_MASK_TAMPER3         RTC_TAMPCR_TAMP3MF /*!< Tamper 3 event generates a trigg
 455:Drivers/STM32L0xx_HAL_Driver/Inc/stm32l0xx_ll_rtc.h **** #endif /* RTC_TAMPER3_SUPPORT */
 456:Drivers/STM32L0xx_HAL_Driver/Inc/stm32l0xx_ll_rtc.h **** /**
 457:Drivers/STM32L0xx_HAL_Driver/Inc/stm32l0xx_ll_rtc.h ****   * @}
 458:Drivers/STM32L0xx_HAL_Driver/Inc/stm32l0xx_ll_rtc.h ****   */
 459:Drivers/STM32L0xx_HAL_Driver/Inc/stm32l0xx_ll_rtc.h **** 
 460:Drivers/STM32L0xx_HAL_Driver/Inc/stm32l0xx_ll_rtc.h **** /** @defgroup RTC_LL_EC_TAMPER_NOERASE  TAMPER NO ERASE
 461:Drivers/STM32L0xx_HAL_Driver/Inc/stm32l0xx_ll_rtc.h ****   * @{
 462:Drivers/STM32L0xx_HAL_Driver/Inc/stm32l0xx_ll_rtc.h ****   */
 463:Drivers/STM32L0xx_HAL_Driver/Inc/stm32l0xx_ll_rtc.h **** #if defined(RTC_TAMPER1_SUPPORT)
 464:Drivers/STM32L0xx_HAL_Driver/Inc/stm32l0xx_ll_rtc.h **** #define LL_RTC_TAMPER_NOERASE_TAMPER1      RTC_TAMPCR_TAMP1NOERASE /*!< Tamper 1 event does not era
ARM GAS  C:\Users\Nathan\AppData\Local\Temp\ccAQTZu2.s 			page 20


 465:Drivers/STM32L0xx_HAL_Driver/Inc/stm32l0xx_ll_rtc.h **** #endif /* RTC_TAMPER1_SUPPORT */
 466:Drivers/STM32L0xx_HAL_Driver/Inc/stm32l0xx_ll_rtc.h **** #define LL_RTC_TAMPER_NOERASE_TAMPER2      RTC_TAMPCR_TAMP2NOERASE /*!< Tamper 2 event does not era
 467:Drivers/STM32L0xx_HAL_Driver/Inc/stm32l0xx_ll_rtc.h **** #if defined(RTC_TAMPER3_SUPPORT)
 468:Drivers/STM32L0xx_HAL_Driver/Inc/stm32l0xx_ll_rtc.h **** #define LL_RTC_TAMPER_NOERASE_TAMPER3      RTC_TAMPCR_TAMP3NOERASE /*!< Tamper 3 event does not era
 469:Drivers/STM32L0xx_HAL_Driver/Inc/stm32l0xx_ll_rtc.h **** #endif /* RTC_TAMPER3_SUPPORT */
 470:Drivers/STM32L0xx_HAL_Driver/Inc/stm32l0xx_ll_rtc.h **** /**
 471:Drivers/STM32L0xx_HAL_Driver/Inc/stm32l0xx_ll_rtc.h ****   * @}
 472:Drivers/STM32L0xx_HAL_Driver/Inc/stm32l0xx_ll_rtc.h ****   */
 473:Drivers/STM32L0xx_HAL_Driver/Inc/stm32l0xx_ll_rtc.h **** 
 474:Drivers/STM32L0xx_HAL_Driver/Inc/stm32l0xx_ll_rtc.h **** /** @defgroup RTC_LL_EC_TAMPER_DURATION  TAMPER DURATION
 475:Drivers/STM32L0xx_HAL_Driver/Inc/stm32l0xx_ll_rtc.h ****   * @{
 476:Drivers/STM32L0xx_HAL_Driver/Inc/stm32l0xx_ll_rtc.h ****   */
 477:Drivers/STM32L0xx_HAL_Driver/Inc/stm32l0xx_ll_rtc.h **** #define LL_RTC_TAMPER_DURATION_1RTCCLK     0x00000000U                             /*!< Tamper pins
 478:Drivers/STM32L0xx_HAL_Driver/Inc/stm32l0xx_ll_rtc.h **** #define LL_RTC_TAMPER_DURATION_2RTCCLK     RTC_TAMPCR_TAMPPRCH_0  /*!< Tamper pins are pre-charged 
 479:Drivers/STM32L0xx_HAL_Driver/Inc/stm32l0xx_ll_rtc.h **** #define LL_RTC_TAMPER_DURATION_4RTCCLK     RTC_TAMPCR_TAMPPRCH_1  /*!< Tamper pins are pre-charged 
 480:Drivers/STM32L0xx_HAL_Driver/Inc/stm32l0xx_ll_rtc.h **** #define LL_RTC_TAMPER_DURATION_8RTCCLK     RTC_TAMPCR_TAMPPRCH    /*!< Tamper pins are pre-charged 
 481:Drivers/STM32L0xx_HAL_Driver/Inc/stm32l0xx_ll_rtc.h **** /**
 482:Drivers/STM32L0xx_HAL_Driver/Inc/stm32l0xx_ll_rtc.h ****   * @}
 483:Drivers/STM32L0xx_HAL_Driver/Inc/stm32l0xx_ll_rtc.h ****   */
 484:Drivers/STM32L0xx_HAL_Driver/Inc/stm32l0xx_ll_rtc.h **** 
 485:Drivers/STM32L0xx_HAL_Driver/Inc/stm32l0xx_ll_rtc.h **** /** @defgroup RTC_LL_EC_TAMPER_FILTER  TAMPER FILTER
 486:Drivers/STM32L0xx_HAL_Driver/Inc/stm32l0xx_ll_rtc.h ****   * @{
 487:Drivers/STM32L0xx_HAL_Driver/Inc/stm32l0xx_ll_rtc.h ****   */
 488:Drivers/STM32L0xx_HAL_Driver/Inc/stm32l0xx_ll_rtc.h **** #define LL_RTC_TAMPER_FILTER_DISABLE       0x00000000U                              /*!< Tamper fil
 489:Drivers/STM32L0xx_HAL_Driver/Inc/stm32l0xx_ll_rtc.h **** #define LL_RTC_TAMPER_FILTER_2SAMPLE       RTC_TAMPCR_TAMPFLT_0    /*!< Tamper is activated after 2
 490:Drivers/STM32L0xx_HAL_Driver/Inc/stm32l0xx_ll_rtc.h **** #define LL_RTC_TAMPER_FILTER_4SAMPLE       RTC_TAMPCR_TAMPFLT_1    /*!< Tamper is activated after 4
 491:Drivers/STM32L0xx_HAL_Driver/Inc/stm32l0xx_ll_rtc.h **** #define LL_RTC_TAMPER_FILTER_8SAMPLE       RTC_TAMPCR_TAMPFLT      /*!< Tamper is activated after 8
 492:Drivers/STM32L0xx_HAL_Driver/Inc/stm32l0xx_ll_rtc.h **** /**
 493:Drivers/STM32L0xx_HAL_Driver/Inc/stm32l0xx_ll_rtc.h ****   * @}
 494:Drivers/STM32L0xx_HAL_Driver/Inc/stm32l0xx_ll_rtc.h ****   */
 495:Drivers/STM32L0xx_HAL_Driver/Inc/stm32l0xx_ll_rtc.h **** 
 496:Drivers/STM32L0xx_HAL_Driver/Inc/stm32l0xx_ll_rtc.h **** /** @defgroup RTC_LL_EC_TAMPER_SAMPLFREQDIV  TAMPER SAMPLING FREQUENCY DIVIDER
 497:Drivers/STM32L0xx_HAL_Driver/Inc/stm32l0xx_ll_rtc.h ****   * @{
 498:Drivers/STM32L0xx_HAL_Driver/Inc/stm32l0xx_ll_rtc.h ****   */
 499:Drivers/STM32L0xx_HAL_Driver/Inc/stm32l0xx_ll_rtc.h **** #define LL_RTC_TAMPER_SAMPLFREQDIV_32768   0x00000000U                                             
 500:Drivers/STM32L0xx_HAL_Driver/Inc/stm32l0xx_ll_rtc.h **** #define LL_RTC_TAMPER_SAMPLFREQDIV_16384   RTC_TAMPCR_TAMPFREQ_0                           /*!< Eac
 501:Drivers/STM32L0xx_HAL_Driver/Inc/stm32l0xx_ll_rtc.h **** #define LL_RTC_TAMPER_SAMPLFREQDIV_8192    RTC_TAMPCR_TAMPFREQ_1                           /*!< Eac
 502:Drivers/STM32L0xx_HAL_Driver/Inc/stm32l0xx_ll_rtc.h **** #define LL_RTC_TAMPER_SAMPLFREQDIV_4096    (RTC_TAMPCR_TAMPFREQ_1 | RTC_TAMPCR_TAMPFREQ_0) /*!< Eac
 503:Drivers/STM32L0xx_HAL_Driver/Inc/stm32l0xx_ll_rtc.h **** #define LL_RTC_TAMPER_SAMPLFREQDIV_2048    RTC_TAMPCR_TAMPFREQ_2                           /*!< Eac
 504:Drivers/STM32L0xx_HAL_Driver/Inc/stm32l0xx_ll_rtc.h **** #define LL_RTC_TAMPER_SAMPLFREQDIV_1024    (RTC_TAMPCR_TAMPFREQ_2 | RTC_TAMPCR_TAMPFREQ_0) /*!< Eac
 505:Drivers/STM32L0xx_HAL_Driver/Inc/stm32l0xx_ll_rtc.h **** #define LL_RTC_TAMPER_SAMPLFREQDIV_512     (RTC_TAMPCR_TAMPFREQ_2 | RTC_TAMPCR_TAMPFREQ_1) /*!< Eac
 506:Drivers/STM32L0xx_HAL_Driver/Inc/stm32l0xx_ll_rtc.h **** #define LL_RTC_TAMPER_SAMPLFREQDIV_256     RTC_TAMPCR_TAMPFREQ                             /*!< Eac
 507:Drivers/STM32L0xx_HAL_Driver/Inc/stm32l0xx_ll_rtc.h **** /**
 508:Drivers/STM32L0xx_HAL_Driver/Inc/stm32l0xx_ll_rtc.h ****   * @}
 509:Drivers/STM32L0xx_HAL_Driver/Inc/stm32l0xx_ll_rtc.h ****   */
 510:Drivers/STM32L0xx_HAL_Driver/Inc/stm32l0xx_ll_rtc.h **** 
 511:Drivers/STM32L0xx_HAL_Driver/Inc/stm32l0xx_ll_rtc.h **** /** @defgroup RTC_LL_EC_TAMPER_ACTIVELEVEL  TAMPER ACTIVE LEVEL
 512:Drivers/STM32L0xx_HAL_Driver/Inc/stm32l0xx_ll_rtc.h ****   * @{
 513:Drivers/STM32L0xx_HAL_Driver/Inc/stm32l0xx_ll_rtc.h ****   */
 514:Drivers/STM32L0xx_HAL_Driver/Inc/stm32l0xx_ll_rtc.h **** #if defined(RTC_TAMPER1_SUPPORT)
 515:Drivers/STM32L0xx_HAL_Driver/Inc/stm32l0xx_ll_rtc.h **** #define LL_RTC_TAMPER_ACTIVELEVEL_TAMP1    RTC_TAMPCR_TAMP1TRG /*!< RTC_TAMP1 input falling edge (i
 516:Drivers/STM32L0xx_HAL_Driver/Inc/stm32l0xx_ll_rtc.h **** #endif /* RTC_TAMPER1_SUPPORT */
 517:Drivers/STM32L0xx_HAL_Driver/Inc/stm32l0xx_ll_rtc.h **** #define LL_RTC_TAMPER_ACTIVELEVEL_TAMP2    RTC_TAMPCR_TAMP2TRG /*!< RTC_TAMP2 input falling edge (i
 518:Drivers/STM32L0xx_HAL_Driver/Inc/stm32l0xx_ll_rtc.h **** #if defined(RTC_TAMPER3_SUPPORT)
 519:Drivers/STM32L0xx_HAL_Driver/Inc/stm32l0xx_ll_rtc.h **** #define LL_RTC_TAMPER_ACTIVELEVEL_TAMP3    RTC_TAMPCR_TAMP3TRG /*!< RTC_TAMP3 input falling edge (i
 520:Drivers/STM32L0xx_HAL_Driver/Inc/stm32l0xx_ll_rtc.h **** #endif /* RTC_TAMPER3_SUPPORT */
 521:Drivers/STM32L0xx_HAL_Driver/Inc/stm32l0xx_ll_rtc.h **** /**
ARM GAS  C:\Users\Nathan\AppData\Local\Temp\ccAQTZu2.s 			page 21


 522:Drivers/STM32L0xx_HAL_Driver/Inc/stm32l0xx_ll_rtc.h ****   * @}
 523:Drivers/STM32L0xx_HAL_Driver/Inc/stm32l0xx_ll_rtc.h ****   */
 524:Drivers/STM32L0xx_HAL_Driver/Inc/stm32l0xx_ll_rtc.h **** 
 525:Drivers/STM32L0xx_HAL_Driver/Inc/stm32l0xx_ll_rtc.h **** /** @defgroup RTC_LL_EC_WAKEUPCLOCK_DIV  WAKEUP CLOCK DIV
 526:Drivers/STM32L0xx_HAL_Driver/Inc/stm32l0xx_ll_rtc.h ****   * @{
 527:Drivers/STM32L0xx_HAL_Driver/Inc/stm32l0xx_ll_rtc.h ****   */
 528:Drivers/STM32L0xx_HAL_Driver/Inc/stm32l0xx_ll_rtc.h **** #define LL_RTC_WAKEUPCLOCK_DIV_16          0x00000000U                           /*!< RTC/16 clock 
 529:Drivers/STM32L0xx_HAL_Driver/Inc/stm32l0xx_ll_rtc.h **** #define LL_RTC_WAKEUPCLOCK_DIV_8           (RTC_CR_WUCKSEL_0)                    /*!< RTC/8 clock i
 530:Drivers/STM32L0xx_HAL_Driver/Inc/stm32l0xx_ll_rtc.h **** #define LL_RTC_WAKEUPCLOCK_DIV_4           (RTC_CR_WUCKSEL_1)                    /*!< RTC/4 clock i
 531:Drivers/STM32L0xx_HAL_Driver/Inc/stm32l0xx_ll_rtc.h **** #define LL_RTC_WAKEUPCLOCK_DIV_2           (RTC_CR_WUCKSEL_1 | RTC_CR_WUCKSEL_0) /*!< RTC/2 clock i
 532:Drivers/STM32L0xx_HAL_Driver/Inc/stm32l0xx_ll_rtc.h **** #define LL_RTC_WAKEUPCLOCK_CKSPRE          (RTC_CR_WUCKSEL_2)                    /*!< ck_spre (usua
 533:Drivers/STM32L0xx_HAL_Driver/Inc/stm32l0xx_ll_rtc.h **** #define LL_RTC_WAKEUPCLOCK_CKSPRE_WUT      (RTC_CR_WUCKSEL_2 | RTC_CR_WUCKSEL_1) /*!< ck_spre (usua
 534:Drivers/STM32L0xx_HAL_Driver/Inc/stm32l0xx_ll_rtc.h **** /**
 535:Drivers/STM32L0xx_HAL_Driver/Inc/stm32l0xx_ll_rtc.h ****   * @}
 536:Drivers/STM32L0xx_HAL_Driver/Inc/stm32l0xx_ll_rtc.h ****   */
 537:Drivers/STM32L0xx_HAL_Driver/Inc/stm32l0xx_ll_rtc.h **** 
 538:Drivers/STM32L0xx_HAL_Driver/Inc/stm32l0xx_ll_rtc.h **** /** @defgroup RTC_LL_EC_BKP  BACKUP
 539:Drivers/STM32L0xx_HAL_Driver/Inc/stm32l0xx_ll_rtc.h ****   * @{
 540:Drivers/STM32L0xx_HAL_Driver/Inc/stm32l0xx_ll_rtc.h ****   */
 541:Drivers/STM32L0xx_HAL_Driver/Inc/stm32l0xx_ll_rtc.h **** #define LL_RTC_BKP_DR0                     0x00000000U
 542:Drivers/STM32L0xx_HAL_Driver/Inc/stm32l0xx_ll_rtc.h **** #define LL_RTC_BKP_DR1                     0x00000001U
 543:Drivers/STM32L0xx_HAL_Driver/Inc/stm32l0xx_ll_rtc.h **** #define LL_RTC_BKP_DR2                     0x00000002U
 544:Drivers/STM32L0xx_HAL_Driver/Inc/stm32l0xx_ll_rtc.h **** #define LL_RTC_BKP_DR3                     0x00000003U
 545:Drivers/STM32L0xx_HAL_Driver/Inc/stm32l0xx_ll_rtc.h **** #define LL_RTC_BKP_DR4                     0x00000004U
 546:Drivers/STM32L0xx_HAL_Driver/Inc/stm32l0xx_ll_rtc.h **** /**
 547:Drivers/STM32L0xx_HAL_Driver/Inc/stm32l0xx_ll_rtc.h ****   * @}
 548:Drivers/STM32L0xx_HAL_Driver/Inc/stm32l0xx_ll_rtc.h ****   */
 549:Drivers/STM32L0xx_HAL_Driver/Inc/stm32l0xx_ll_rtc.h **** 
 550:Drivers/STM32L0xx_HAL_Driver/Inc/stm32l0xx_ll_rtc.h **** /** @defgroup RTC_LL_EC_CALIB_OUTPUT  Calibration output
 551:Drivers/STM32L0xx_HAL_Driver/Inc/stm32l0xx_ll_rtc.h ****   * @{
 552:Drivers/STM32L0xx_HAL_Driver/Inc/stm32l0xx_ll_rtc.h ****   */
 553:Drivers/STM32L0xx_HAL_Driver/Inc/stm32l0xx_ll_rtc.h **** #define LL_RTC_CALIB_OUTPUT_NONE           0x00000000U                 /*!< Calibration output disa
 554:Drivers/STM32L0xx_HAL_Driver/Inc/stm32l0xx_ll_rtc.h **** #define LL_RTC_CALIB_OUTPUT_1HZ            (RTC_CR_COE | RTC_CR_COSEL) /*!< Calibration output is 1
 555:Drivers/STM32L0xx_HAL_Driver/Inc/stm32l0xx_ll_rtc.h **** #define LL_RTC_CALIB_OUTPUT_512HZ          (RTC_CR_COE)                /*!< Calibration output is 5
 556:Drivers/STM32L0xx_HAL_Driver/Inc/stm32l0xx_ll_rtc.h **** /**
 557:Drivers/STM32L0xx_HAL_Driver/Inc/stm32l0xx_ll_rtc.h ****   * @}
 558:Drivers/STM32L0xx_HAL_Driver/Inc/stm32l0xx_ll_rtc.h ****   */
 559:Drivers/STM32L0xx_HAL_Driver/Inc/stm32l0xx_ll_rtc.h **** 
 560:Drivers/STM32L0xx_HAL_Driver/Inc/stm32l0xx_ll_rtc.h **** /** @defgroup RTC_LL_EC_CALIB_INSERTPULSE  Calibration pulse insertion
 561:Drivers/STM32L0xx_HAL_Driver/Inc/stm32l0xx_ll_rtc.h ****   * @{
 562:Drivers/STM32L0xx_HAL_Driver/Inc/stm32l0xx_ll_rtc.h ****   */
 563:Drivers/STM32L0xx_HAL_Driver/Inc/stm32l0xx_ll_rtc.h **** #define LL_RTC_CALIB_INSERTPULSE_NONE      0x00000000U           /*!< No RTCCLK pulses are added */
 564:Drivers/STM32L0xx_HAL_Driver/Inc/stm32l0xx_ll_rtc.h **** #define LL_RTC_CALIB_INSERTPULSE_SET       RTC_CALR_CALP         /*!< One RTCCLK pulse is effective
 565:Drivers/STM32L0xx_HAL_Driver/Inc/stm32l0xx_ll_rtc.h **** /**
 566:Drivers/STM32L0xx_HAL_Driver/Inc/stm32l0xx_ll_rtc.h ****   * @}
 567:Drivers/STM32L0xx_HAL_Driver/Inc/stm32l0xx_ll_rtc.h ****   */
 568:Drivers/STM32L0xx_HAL_Driver/Inc/stm32l0xx_ll_rtc.h **** 
 569:Drivers/STM32L0xx_HAL_Driver/Inc/stm32l0xx_ll_rtc.h **** /** @defgroup RTC_LL_EC_CALIB_PERIOD  Calibration period
 570:Drivers/STM32L0xx_HAL_Driver/Inc/stm32l0xx_ll_rtc.h ****   * @{
 571:Drivers/STM32L0xx_HAL_Driver/Inc/stm32l0xx_ll_rtc.h ****   */
 572:Drivers/STM32L0xx_HAL_Driver/Inc/stm32l0xx_ll_rtc.h **** #define LL_RTC_CALIB_PERIOD_32SEC          0x00000000U           /*!< Use a 32-second calibration c
 573:Drivers/STM32L0xx_HAL_Driver/Inc/stm32l0xx_ll_rtc.h **** #define LL_RTC_CALIB_PERIOD_16SEC          RTC_CALR_CALW16       /*!< Use a 16-second calibration c
 574:Drivers/STM32L0xx_HAL_Driver/Inc/stm32l0xx_ll_rtc.h **** #define LL_RTC_CALIB_PERIOD_8SEC           RTC_CALR_CALW8        /*!< Use a 8-second calibration cy
 575:Drivers/STM32L0xx_HAL_Driver/Inc/stm32l0xx_ll_rtc.h **** /**
 576:Drivers/STM32L0xx_HAL_Driver/Inc/stm32l0xx_ll_rtc.h ****   * @}
 577:Drivers/STM32L0xx_HAL_Driver/Inc/stm32l0xx_ll_rtc.h ****   */
 578:Drivers/STM32L0xx_HAL_Driver/Inc/stm32l0xx_ll_rtc.h **** 
ARM GAS  C:\Users\Nathan\AppData\Local\Temp\ccAQTZu2.s 			page 22


 579:Drivers/STM32L0xx_HAL_Driver/Inc/stm32l0xx_ll_rtc.h **** /**
 580:Drivers/STM32L0xx_HAL_Driver/Inc/stm32l0xx_ll_rtc.h ****   * @}
 581:Drivers/STM32L0xx_HAL_Driver/Inc/stm32l0xx_ll_rtc.h ****   */
 582:Drivers/STM32L0xx_HAL_Driver/Inc/stm32l0xx_ll_rtc.h **** 
 583:Drivers/STM32L0xx_HAL_Driver/Inc/stm32l0xx_ll_rtc.h **** /* Exported macro ------------------------------------------------------------*/
 584:Drivers/STM32L0xx_HAL_Driver/Inc/stm32l0xx_ll_rtc.h **** /** @defgroup RTC_LL_Exported_Macros RTC Exported Macros
 585:Drivers/STM32L0xx_HAL_Driver/Inc/stm32l0xx_ll_rtc.h ****   * @{
 586:Drivers/STM32L0xx_HAL_Driver/Inc/stm32l0xx_ll_rtc.h ****   */
 587:Drivers/STM32L0xx_HAL_Driver/Inc/stm32l0xx_ll_rtc.h **** 
 588:Drivers/STM32L0xx_HAL_Driver/Inc/stm32l0xx_ll_rtc.h **** /** @defgroup RTC_LL_EM_WRITE_READ Common Write and read registers Macros
 589:Drivers/STM32L0xx_HAL_Driver/Inc/stm32l0xx_ll_rtc.h ****   * @{
 590:Drivers/STM32L0xx_HAL_Driver/Inc/stm32l0xx_ll_rtc.h ****   */
 591:Drivers/STM32L0xx_HAL_Driver/Inc/stm32l0xx_ll_rtc.h **** 
 592:Drivers/STM32L0xx_HAL_Driver/Inc/stm32l0xx_ll_rtc.h **** /**
 593:Drivers/STM32L0xx_HAL_Driver/Inc/stm32l0xx_ll_rtc.h ****   * @brief  Write a value in RTC register
 594:Drivers/STM32L0xx_HAL_Driver/Inc/stm32l0xx_ll_rtc.h ****   * @param  __INSTANCE__ RTC Instance
 595:Drivers/STM32L0xx_HAL_Driver/Inc/stm32l0xx_ll_rtc.h ****   * @param  __REG__ Register to be written
 596:Drivers/STM32L0xx_HAL_Driver/Inc/stm32l0xx_ll_rtc.h ****   * @param  __VALUE__ Value to be written in the register
 597:Drivers/STM32L0xx_HAL_Driver/Inc/stm32l0xx_ll_rtc.h ****   * @retval None
 598:Drivers/STM32L0xx_HAL_Driver/Inc/stm32l0xx_ll_rtc.h ****   */
 599:Drivers/STM32L0xx_HAL_Driver/Inc/stm32l0xx_ll_rtc.h **** #define LL_RTC_WriteReg(__INSTANCE__, __REG__, __VALUE__) WRITE_REG(__INSTANCE__->__REG__, (__VALUE
 600:Drivers/STM32L0xx_HAL_Driver/Inc/stm32l0xx_ll_rtc.h **** 
 601:Drivers/STM32L0xx_HAL_Driver/Inc/stm32l0xx_ll_rtc.h **** /**
 602:Drivers/STM32L0xx_HAL_Driver/Inc/stm32l0xx_ll_rtc.h ****   * @brief  Read a value in RTC register
 603:Drivers/STM32L0xx_HAL_Driver/Inc/stm32l0xx_ll_rtc.h ****   * @param  __INSTANCE__ RTC Instance
 604:Drivers/STM32L0xx_HAL_Driver/Inc/stm32l0xx_ll_rtc.h ****   * @param  __REG__ Register to be read
 605:Drivers/STM32L0xx_HAL_Driver/Inc/stm32l0xx_ll_rtc.h ****   * @retval Register value
 606:Drivers/STM32L0xx_HAL_Driver/Inc/stm32l0xx_ll_rtc.h ****   */
 607:Drivers/STM32L0xx_HAL_Driver/Inc/stm32l0xx_ll_rtc.h **** #define LL_RTC_ReadReg(__INSTANCE__, __REG__) READ_REG(__INSTANCE__->__REG__)
 608:Drivers/STM32L0xx_HAL_Driver/Inc/stm32l0xx_ll_rtc.h **** /**
 609:Drivers/STM32L0xx_HAL_Driver/Inc/stm32l0xx_ll_rtc.h ****   * @}
 610:Drivers/STM32L0xx_HAL_Driver/Inc/stm32l0xx_ll_rtc.h ****   */
 611:Drivers/STM32L0xx_HAL_Driver/Inc/stm32l0xx_ll_rtc.h **** 
 612:Drivers/STM32L0xx_HAL_Driver/Inc/stm32l0xx_ll_rtc.h **** /** @defgroup RTC_LL_EM_Convert Convert helper Macros
 613:Drivers/STM32L0xx_HAL_Driver/Inc/stm32l0xx_ll_rtc.h ****   * @{
 614:Drivers/STM32L0xx_HAL_Driver/Inc/stm32l0xx_ll_rtc.h ****   */
 615:Drivers/STM32L0xx_HAL_Driver/Inc/stm32l0xx_ll_rtc.h **** 
 616:Drivers/STM32L0xx_HAL_Driver/Inc/stm32l0xx_ll_rtc.h **** /**
 617:Drivers/STM32L0xx_HAL_Driver/Inc/stm32l0xx_ll_rtc.h ****   * @brief  Helper macro to convert a value from 2 digit decimal format to BCD format
 618:Drivers/STM32L0xx_HAL_Driver/Inc/stm32l0xx_ll_rtc.h ****   * @param  __VALUE__ Byte to be converted
 619:Drivers/STM32L0xx_HAL_Driver/Inc/stm32l0xx_ll_rtc.h ****   * @retval Converted byte
 620:Drivers/STM32L0xx_HAL_Driver/Inc/stm32l0xx_ll_rtc.h ****   */
 621:Drivers/STM32L0xx_HAL_Driver/Inc/stm32l0xx_ll_rtc.h **** #define __LL_RTC_CONVERT_BIN2BCD(__VALUE__) (uint8_t)((((__VALUE__) / 10U) << 4U) | ((__VALUE__) % 
 622:Drivers/STM32L0xx_HAL_Driver/Inc/stm32l0xx_ll_rtc.h **** 
 623:Drivers/STM32L0xx_HAL_Driver/Inc/stm32l0xx_ll_rtc.h **** /**
 624:Drivers/STM32L0xx_HAL_Driver/Inc/stm32l0xx_ll_rtc.h ****   * @brief  Helper macro to convert a value from BCD format to 2 digit decimal format
 625:Drivers/STM32L0xx_HAL_Driver/Inc/stm32l0xx_ll_rtc.h ****   * @param  __VALUE__ BCD value to be converted
 626:Drivers/STM32L0xx_HAL_Driver/Inc/stm32l0xx_ll_rtc.h ****   * @retval Converted byte
 627:Drivers/STM32L0xx_HAL_Driver/Inc/stm32l0xx_ll_rtc.h ****   */
 628:Drivers/STM32L0xx_HAL_Driver/Inc/stm32l0xx_ll_rtc.h **** #define __LL_RTC_CONVERT_BCD2BIN(__VALUE__) (uint8_t)(((uint8_t)((__VALUE__) & (uint8_t)0xF0U) >> (
 629:Drivers/STM32L0xx_HAL_Driver/Inc/stm32l0xx_ll_rtc.h **** 
 630:Drivers/STM32L0xx_HAL_Driver/Inc/stm32l0xx_ll_rtc.h **** /**
 631:Drivers/STM32L0xx_HAL_Driver/Inc/stm32l0xx_ll_rtc.h ****   * @}
 632:Drivers/STM32L0xx_HAL_Driver/Inc/stm32l0xx_ll_rtc.h ****   */
 633:Drivers/STM32L0xx_HAL_Driver/Inc/stm32l0xx_ll_rtc.h **** 
 634:Drivers/STM32L0xx_HAL_Driver/Inc/stm32l0xx_ll_rtc.h **** /** @defgroup RTC_LL_EM_Date Date helper Macros
 635:Drivers/STM32L0xx_HAL_Driver/Inc/stm32l0xx_ll_rtc.h ****   * @{
ARM GAS  C:\Users\Nathan\AppData\Local\Temp\ccAQTZu2.s 			page 23


 636:Drivers/STM32L0xx_HAL_Driver/Inc/stm32l0xx_ll_rtc.h ****   */
 637:Drivers/STM32L0xx_HAL_Driver/Inc/stm32l0xx_ll_rtc.h **** 
 638:Drivers/STM32L0xx_HAL_Driver/Inc/stm32l0xx_ll_rtc.h **** /**
 639:Drivers/STM32L0xx_HAL_Driver/Inc/stm32l0xx_ll_rtc.h ****   * @brief  Helper macro to retrieve weekday.
 640:Drivers/STM32L0xx_HAL_Driver/Inc/stm32l0xx_ll_rtc.h ****   * @param  __RTC_DATE__ Date returned by @ref  LL_RTC_DATE_Get function.
 641:Drivers/STM32L0xx_HAL_Driver/Inc/stm32l0xx_ll_rtc.h ****   * @retval Returned value can be one of the following values:
 642:Drivers/STM32L0xx_HAL_Driver/Inc/stm32l0xx_ll_rtc.h ****   *         @arg @ref LL_RTC_WEEKDAY_MONDAY
 643:Drivers/STM32L0xx_HAL_Driver/Inc/stm32l0xx_ll_rtc.h ****   *         @arg @ref LL_RTC_WEEKDAY_TUESDAY
 644:Drivers/STM32L0xx_HAL_Driver/Inc/stm32l0xx_ll_rtc.h ****   *         @arg @ref LL_RTC_WEEKDAY_WEDNESDAY
 645:Drivers/STM32L0xx_HAL_Driver/Inc/stm32l0xx_ll_rtc.h ****   *         @arg @ref LL_RTC_WEEKDAY_THURSDAY
 646:Drivers/STM32L0xx_HAL_Driver/Inc/stm32l0xx_ll_rtc.h ****   *         @arg @ref LL_RTC_WEEKDAY_FRIDAY
 647:Drivers/STM32L0xx_HAL_Driver/Inc/stm32l0xx_ll_rtc.h ****   *         @arg @ref LL_RTC_WEEKDAY_SATURDAY
 648:Drivers/STM32L0xx_HAL_Driver/Inc/stm32l0xx_ll_rtc.h ****   *         @arg @ref LL_RTC_WEEKDAY_SUNDAY
 649:Drivers/STM32L0xx_HAL_Driver/Inc/stm32l0xx_ll_rtc.h ****   */
 650:Drivers/STM32L0xx_HAL_Driver/Inc/stm32l0xx_ll_rtc.h **** #define __LL_RTC_GET_WEEKDAY(__RTC_DATE__) (((__RTC_DATE__) >> RTC_OFFSET_WEEKDAY) & 0x000000FFU)
 651:Drivers/STM32L0xx_HAL_Driver/Inc/stm32l0xx_ll_rtc.h **** 
 652:Drivers/STM32L0xx_HAL_Driver/Inc/stm32l0xx_ll_rtc.h **** /**
 653:Drivers/STM32L0xx_HAL_Driver/Inc/stm32l0xx_ll_rtc.h ****   * @brief  Helper macro to retrieve Year in BCD format
 654:Drivers/STM32L0xx_HAL_Driver/Inc/stm32l0xx_ll_rtc.h ****   * @param  __RTC_DATE__ Value returned by @ref  LL_RTC_DATE_Get
 655:Drivers/STM32L0xx_HAL_Driver/Inc/stm32l0xx_ll_rtc.h ****   * @retval Year in BCD format (0x00 . . . 0x99)
 656:Drivers/STM32L0xx_HAL_Driver/Inc/stm32l0xx_ll_rtc.h ****   */
 657:Drivers/STM32L0xx_HAL_Driver/Inc/stm32l0xx_ll_rtc.h **** #define __LL_RTC_GET_YEAR(__RTC_DATE__) ((__RTC_DATE__) & 0x000000FFU)
 658:Drivers/STM32L0xx_HAL_Driver/Inc/stm32l0xx_ll_rtc.h **** 
 659:Drivers/STM32L0xx_HAL_Driver/Inc/stm32l0xx_ll_rtc.h **** /**
 660:Drivers/STM32L0xx_HAL_Driver/Inc/stm32l0xx_ll_rtc.h ****   * @brief  Helper macro to retrieve Month in BCD format
 661:Drivers/STM32L0xx_HAL_Driver/Inc/stm32l0xx_ll_rtc.h ****   * @param  __RTC_DATE__ Value returned by @ref  LL_RTC_DATE_Get
 662:Drivers/STM32L0xx_HAL_Driver/Inc/stm32l0xx_ll_rtc.h ****   * @retval Returned value can be one of the following values:
 663:Drivers/STM32L0xx_HAL_Driver/Inc/stm32l0xx_ll_rtc.h ****   *         @arg @ref LL_RTC_MONTH_JANUARY
 664:Drivers/STM32L0xx_HAL_Driver/Inc/stm32l0xx_ll_rtc.h ****   *         @arg @ref LL_RTC_MONTH_FEBRUARY
 665:Drivers/STM32L0xx_HAL_Driver/Inc/stm32l0xx_ll_rtc.h ****   *         @arg @ref LL_RTC_MONTH_MARCH
 666:Drivers/STM32L0xx_HAL_Driver/Inc/stm32l0xx_ll_rtc.h ****   *         @arg @ref LL_RTC_MONTH_APRIL
 667:Drivers/STM32L0xx_HAL_Driver/Inc/stm32l0xx_ll_rtc.h ****   *         @arg @ref LL_RTC_MONTH_MAY
 668:Drivers/STM32L0xx_HAL_Driver/Inc/stm32l0xx_ll_rtc.h ****   *         @arg @ref LL_RTC_MONTH_JUNE
 669:Drivers/STM32L0xx_HAL_Driver/Inc/stm32l0xx_ll_rtc.h ****   *         @arg @ref LL_RTC_MONTH_JULY
 670:Drivers/STM32L0xx_HAL_Driver/Inc/stm32l0xx_ll_rtc.h ****   *         @arg @ref LL_RTC_MONTH_AUGUST
 671:Drivers/STM32L0xx_HAL_Driver/Inc/stm32l0xx_ll_rtc.h ****   *         @arg @ref LL_RTC_MONTH_SEPTEMBER
 672:Drivers/STM32L0xx_HAL_Driver/Inc/stm32l0xx_ll_rtc.h ****   *         @arg @ref LL_RTC_MONTH_OCTOBER
 673:Drivers/STM32L0xx_HAL_Driver/Inc/stm32l0xx_ll_rtc.h ****   *         @arg @ref LL_RTC_MONTH_NOVEMBER
 674:Drivers/STM32L0xx_HAL_Driver/Inc/stm32l0xx_ll_rtc.h ****   *         @arg @ref LL_RTC_MONTH_DECEMBER
 675:Drivers/STM32L0xx_HAL_Driver/Inc/stm32l0xx_ll_rtc.h ****   */
 676:Drivers/STM32L0xx_HAL_Driver/Inc/stm32l0xx_ll_rtc.h **** #define __LL_RTC_GET_MONTH(__RTC_DATE__) (((__RTC_DATE__) >>RTC_OFFSET_MONTH) & 0x000000FFU)
 677:Drivers/STM32L0xx_HAL_Driver/Inc/stm32l0xx_ll_rtc.h **** 
 678:Drivers/STM32L0xx_HAL_Driver/Inc/stm32l0xx_ll_rtc.h **** /**
 679:Drivers/STM32L0xx_HAL_Driver/Inc/stm32l0xx_ll_rtc.h ****   * @brief  Helper macro to retrieve Day in BCD format
 680:Drivers/STM32L0xx_HAL_Driver/Inc/stm32l0xx_ll_rtc.h ****   * @param  __RTC_DATE__ Value returned by @ref  LL_RTC_DATE_Get
 681:Drivers/STM32L0xx_HAL_Driver/Inc/stm32l0xx_ll_rtc.h ****   * @retval Day in BCD format (0x01 . . . 0x31)
 682:Drivers/STM32L0xx_HAL_Driver/Inc/stm32l0xx_ll_rtc.h ****   */
 683:Drivers/STM32L0xx_HAL_Driver/Inc/stm32l0xx_ll_rtc.h **** #define __LL_RTC_GET_DAY(__RTC_DATE__) (((__RTC_DATE__) >>RTC_OFFSET_DAY) & 0x000000FFU)
 684:Drivers/STM32L0xx_HAL_Driver/Inc/stm32l0xx_ll_rtc.h **** 
 685:Drivers/STM32L0xx_HAL_Driver/Inc/stm32l0xx_ll_rtc.h **** /**
 686:Drivers/STM32L0xx_HAL_Driver/Inc/stm32l0xx_ll_rtc.h ****   * @}
 687:Drivers/STM32L0xx_HAL_Driver/Inc/stm32l0xx_ll_rtc.h ****   */
 688:Drivers/STM32L0xx_HAL_Driver/Inc/stm32l0xx_ll_rtc.h **** 
 689:Drivers/STM32L0xx_HAL_Driver/Inc/stm32l0xx_ll_rtc.h **** /** @defgroup RTC_LL_EM_Time Time helper Macros
 690:Drivers/STM32L0xx_HAL_Driver/Inc/stm32l0xx_ll_rtc.h ****   * @{
 691:Drivers/STM32L0xx_HAL_Driver/Inc/stm32l0xx_ll_rtc.h ****   */
 692:Drivers/STM32L0xx_HAL_Driver/Inc/stm32l0xx_ll_rtc.h **** 
ARM GAS  C:\Users\Nathan\AppData\Local\Temp\ccAQTZu2.s 			page 24


 693:Drivers/STM32L0xx_HAL_Driver/Inc/stm32l0xx_ll_rtc.h **** /**
 694:Drivers/STM32L0xx_HAL_Driver/Inc/stm32l0xx_ll_rtc.h ****   * @brief  Helper macro to retrieve hour in BCD format
 695:Drivers/STM32L0xx_HAL_Driver/Inc/stm32l0xx_ll_rtc.h ****   * @param  __RTC_TIME__ RTC time returned by @ref LL_RTC_TIME_Get function
 696:Drivers/STM32L0xx_HAL_Driver/Inc/stm32l0xx_ll_rtc.h ****   * @retval Hours in BCD format (0x01. . .0x12 or between Min_Data=0x00 and Max_Data=0x23)
 697:Drivers/STM32L0xx_HAL_Driver/Inc/stm32l0xx_ll_rtc.h ****   */
 698:Drivers/STM32L0xx_HAL_Driver/Inc/stm32l0xx_ll_rtc.h **** #define __LL_RTC_GET_HOUR(__RTC_TIME__) (((__RTC_TIME__) >> RTC_OFFSET_HOUR) & 0x000000FFU)
 699:Drivers/STM32L0xx_HAL_Driver/Inc/stm32l0xx_ll_rtc.h **** 
 700:Drivers/STM32L0xx_HAL_Driver/Inc/stm32l0xx_ll_rtc.h **** /**
 701:Drivers/STM32L0xx_HAL_Driver/Inc/stm32l0xx_ll_rtc.h ****   * @brief  Helper macro to retrieve minute in BCD format
 702:Drivers/STM32L0xx_HAL_Driver/Inc/stm32l0xx_ll_rtc.h ****   * @param  __RTC_TIME__ RTC time returned by @ref LL_RTC_TIME_Get function
 703:Drivers/STM32L0xx_HAL_Driver/Inc/stm32l0xx_ll_rtc.h ****   * @retval Minutes in BCD format (0x00. . .0x59)
 704:Drivers/STM32L0xx_HAL_Driver/Inc/stm32l0xx_ll_rtc.h ****   */
 705:Drivers/STM32L0xx_HAL_Driver/Inc/stm32l0xx_ll_rtc.h **** #define __LL_RTC_GET_MINUTE(__RTC_TIME__) (((__RTC_TIME__) >> RTC_OFFSET_MINUTE) & 0x000000FFU)
 706:Drivers/STM32L0xx_HAL_Driver/Inc/stm32l0xx_ll_rtc.h **** 
 707:Drivers/STM32L0xx_HAL_Driver/Inc/stm32l0xx_ll_rtc.h **** /**
 708:Drivers/STM32L0xx_HAL_Driver/Inc/stm32l0xx_ll_rtc.h ****   * @brief  Helper macro to retrieve second in BCD format
 709:Drivers/STM32L0xx_HAL_Driver/Inc/stm32l0xx_ll_rtc.h ****   * @param  __RTC_TIME__ RTC time returned by @ref LL_RTC_TIME_Get function
 710:Drivers/STM32L0xx_HAL_Driver/Inc/stm32l0xx_ll_rtc.h ****   * @retval Seconds in  format (0x00. . .0x59)
 711:Drivers/STM32L0xx_HAL_Driver/Inc/stm32l0xx_ll_rtc.h ****   */
 712:Drivers/STM32L0xx_HAL_Driver/Inc/stm32l0xx_ll_rtc.h **** #define __LL_RTC_GET_SECOND(__RTC_TIME__) ((__RTC_TIME__) & 0x000000FFU)
 713:Drivers/STM32L0xx_HAL_Driver/Inc/stm32l0xx_ll_rtc.h **** 
 714:Drivers/STM32L0xx_HAL_Driver/Inc/stm32l0xx_ll_rtc.h **** /**
 715:Drivers/STM32L0xx_HAL_Driver/Inc/stm32l0xx_ll_rtc.h ****   * @}
 716:Drivers/STM32L0xx_HAL_Driver/Inc/stm32l0xx_ll_rtc.h ****   */
 717:Drivers/STM32L0xx_HAL_Driver/Inc/stm32l0xx_ll_rtc.h **** 
 718:Drivers/STM32L0xx_HAL_Driver/Inc/stm32l0xx_ll_rtc.h **** /**
 719:Drivers/STM32L0xx_HAL_Driver/Inc/stm32l0xx_ll_rtc.h ****   * @}
 720:Drivers/STM32L0xx_HAL_Driver/Inc/stm32l0xx_ll_rtc.h ****   */
 721:Drivers/STM32L0xx_HAL_Driver/Inc/stm32l0xx_ll_rtc.h **** 
 722:Drivers/STM32L0xx_HAL_Driver/Inc/stm32l0xx_ll_rtc.h **** /* Exported functions --------------------------------------------------------*/
 723:Drivers/STM32L0xx_HAL_Driver/Inc/stm32l0xx_ll_rtc.h **** /** @defgroup RTC_LL_Exported_Functions RTC Exported Functions
 724:Drivers/STM32L0xx_HAL_Driver/Inc/stm32l0xx_ll_rtc.h ****   * @{
 725:Drivers/STM32L0xx_HAL_Driver/Inc/stm32l0xx_ll_rtc.h ****   */
 726:Drivers/STM32L0xx_HAL_Driver/Inc/stm32l0xx_ll_rtc.h **** 
 727:Drivers/STM32L0xx_HAL_Driver/Inc/stm32l0xx_ll_rtc.h **** /** @defgroup RTC_LL_EF_Configuration Configuration
 728:Drivers/STM32L0xx_HAL_Driver/Inc/stm32l0xx_ll_rtc.h ****   * @{
 729:Drivers/STM32L0xx_HAL_Driver/Inc/stm32l0xx_ll_rtc.h ****   */
 730:Drivers/STM32L0xx_HAL_Driver/Inc/stm32l0xx_ll_rtc.h **** 
 731:Drivers/STM32L0xx_HAL_Driver/Inc/stm32l0xx_ll_rtc.h **** /**
 732:Drivers/STM32L0xx_HAL_Driver/Inc/stm32l0xx_ll_rtc.h ****   * @brief  Set Hours format (24 hour/day or AM/PM hour format)
 733:Drivers/STM32L0xx_HAL_Driver/Inc/stm32l0xx_ll_rtc.h ****   * @note   Bit is write-protected. @ref LL_RTC_DisableWriteProtection function should be called be
 734:Drivers/STM32L0xx_HAL_Driver/Inc/stm32l0xx_ll_rtc.h ****   * @note   It can be written in initialization mode only (@ref LL_RTC_EnableInitMode function)
 735:Drivers/STM32L0xx_HAL_Driver/Inc/stm32l0xx_ll_rtc.h ****   * @rmtoll CR           FMT           LL_RTC_SetHourFormat
 736:Drivers/STM32L0xx_HAL_Driver/Inc/stm32l0xx_ll_rtc.h ****   * @param  RTCx RTC Instance
 737:Drivers/STM32L0xx_HAL_Driver/Inc/stm32l0xx_ll_rtc.h ****   * @param  HourFormat This parameter can be one of the following values:
 738:Drivers/STM32L0xx_HAL_Driver/Inc/stm32l0xx_ll_rtc.h ****   *         @arg @ref LL_RTC_HOURFORMAT_24HOUR
 739:Drivers/STM32L0xx_HAL_Driver/Inc/stm32l0xx_ll_rtc.h ****   *         @arg @ref LL_RTC_HOURFORMAT_AMPM
 740:Drivers/STM32L0xx_HAL_Driver/Inc/stm32l0xx_ll_rtc.h ****   * @retval None
 741:Drivers/STM32L0xx_HAL_Driver/Inc/stm32l0xx_ll_rtc.h ****   */
 742:Drivers/STM32L0xx_HAL_Driver/Inc/stm32l0xx_ll_rtc.h **** __STATIC_INLINE void LL_RTC_SetHourFormat(RTC_TypeDef *RTCx, uint32_t HourFormat)
 743:Drivers/STM32L0xx_HAL_Driver/Inc/stm32l0xx_ll_rtc.h **** {
 744:Drivers/STM32L0xx_HAL_Driver/Inc/stm32l0xx_ll_rtc.h ****   MODIFY_REG(RTCx->CR, RTC_CR_FMT, HourFormat);
 745:Drivers/STM32L0xx_HAL_Driver/Inc/stm32l0xx_ll_rtc.h **** }
 746:Drivers/STM32L0xx_HAL_Driver/Inc/stm32l0xx_ll_rtc.h **** 
 747:Drivers/STM32L0xx_HAL_Driver/Inc/stm32l0xx_ll_rtc.h **** /**
 748:Drivers/STM32L0xx_HAL_Driver/Inc/stm32l0xx_ll_rtc.h ****   * @brief  Get Hours format (24 hour/day or AM/PM hour format)
 749:Drivers/STM32L0xx_HAL_Driver/Inc/stm32l0xx_ll_rtc.h ****   * @rmtoll CR           FMT           LL_RTC_GetHourFormat
ARM GAS  C:\Users\Nathan\AppData\Local\Temp\ccAQTZu2.s 			page 25


 750:Drivers/STM32L0xx_HAL_Driver/Inc/stm32l0xx_ll_rtc.h ****   * @param  RTCx RTC Instance
 751:Drivers/STM32L0xx_HAL_Driver/Inc/stm32l0xx_ll_rtc.h ****   * @retval Returned value can be one of the following values:
 752:Drivers/STM32L0xx_HAL_Driver/Inc/stm32l0xx_ll_rtc.h ****   *         @arg @ref LL_RTC_HOURFORMAT_24HOUR
 753:Drivers/STM32L0xx_HAL_Driver/Inc/stm32l0xx_ll_rtc.h ****   *         @arg @ref LL_RTC_HOURFORMAT_AMPM
 754:Drivers/STM32L0xx_HAL_Driver/Inc/stm32l0xx_ll_rtc.h ****   */
 755:Drivers/STM32L0xx_HAL_Driver/Inc/stm32l0xx_ll_rtc.h **** __STATIC_INLINE uint32_t LL_RTC_GetHourFormat(RTC_TypeDef *RTCx)
 170              		.loc 2 755 26 view .LVU37
 171              	.LBB115:
 756:Drivers/STM32L0xx_HAL_Driver/Inc/stm32l0xx_ll_rtc.h **** {
 757:Drivers/STM32L0xx_HAL_Driver/Inc/stm32l0xx_ll_rtc.h ****   return (uint32_t)(READ_BIT(RTCx->CR, RTC_CR_FMT));
 172              		.loc 2 757 3 view .LVU38
 173              		.loc 2 757 21 is_stmt 0 view .LVU39
 174 0014 8368     		ldr	r3, [r0, #8]
 175              	.LVL5:
 176              		.loc 2 757 21 view .LVU40
 177              	.LBE115:
 178              	.LBE114:
 179              		.loc 1 457 8 view .LVU41
 180 0016 5B06     		lsls	r3, r3, #25
 181 0018 01D4     		bmi	.L7
 458:Drivers/STM32L0xx_HAL_Driver/Src/stm32l0xx_ll_rtc.c ****     {
 459:Drivers/STM32L0xx_HAL_Driver/Src/stm32l0xx_ll_rtc.c ****       assert_param(IS_LL_RTC_HOUR12(RTC_AlarmStruct->AlarmTime.Hours));
 460:Drivers/STM32L0xx_HAL_Driver/Src/stm32l0xx_ll_rtc.c ****       assert_param(IS_LL_RTC_TIME_FORMAT(RTC_AlarmStruct->AlarmTime.TimeFormat));
 461:Drivers/STM32L0xx_HAL_Driver/Src/stm32l0xx_ll_rtc.c ****     }
 462:Drivers/STM32L0xx_HAL_Driver/Src/stm32l0xx_ll_rtc.c ****     else
 463:Drivers/STM32L0xx_HAL_Driver/Src/stm32l0xx_ll_rtc.c ****     {
 464:Drivers/STM32L0xx_HAL_Driver/Src/stm32l0xx_ll_rtc.c ****       RTC_AlarmStruct->AlarmTime.TimeFormat = 0x00U;
 182              		.loc 1 464 7 is_stmt 1 view .LVU42
 183              		.loc 1 464 45 is_stmt 0 view .LVU43
 184 001a 0023     		movs	r3, #0
 185 001c 1360     		str	r3, [r2]
 465:Drivers/STM32L0xx_HAL_Driver/Src/stm32l0xx_ll_rtc.c ****       assert_param(IS_LL_RTC_HOUR24(RTC_AlarmStruct->AlarmTime.Hours));
 186              		.loc 1 465 7 is_stmt 1 view .LVU44
 466:Drivers/STM32L0xx_HAL_Driver/Src/stm32l0xx_ll_rtc.c ****     }
 467:Drivers/STM32L0xx_HAL_Driver/Src/stm32l0xx_ll_rtc.c ****     assert_param(IS_LL_RTC_MINUTES(RTC_AlarmStruct->AlarmTime.Minutes));
 187              		.loc 1 467 5 view .LVU45
 468:Drivers/STM32L0xx_HAL_Driver/Src/stm32l0xx_ll_rtc.c ****     assert_param(IS_LL_RTC_SECONDS(RTC_AlarmStruct->AlarmTime.Seconds));
 188              		.loc 1 468 5 view .LVU46
 469:Drivers/STM32L0xx_HAL_Driver/Src/stm32l0xx_ll_rtc.c **** 
 470:Drivers/STM32L0xx_HAL_Driver/Src/stm32l0xx_ll_rtc.c ****     if (RTC_AlarmStruct->AlarmDateWeekDaySel == LL_RTC_ALMA_DATEWEEKDAYSEL_DATE)
 189              		.loc 1 470 5 view .LVU47
 190              	.L7:
 471:Drivers/STM32L0xx_HAL_Driver/Src/stm32l0xx_ll_rtc.c ****     {
 472:Drivers/STM32L0xx_HAL_Driver/Src/stm32l0xx_ll_rtc.c ****       assert_param(IS_LL_RTC_DAY(RTC_AlarmStruct->AlarmDateWeekDay));
 473:Drivers/STM32L0xx_HAL_Driver/Src/stm32l0xx_ll_rtc.c ****     }
 474:Drivers/STM32L0xx_HAL_Driver/Src/stm32l0xx_ll_rtc.c ****     else
 475:Drivers/STM32L0xx_HAL_Driver/Src/stm32l0xx_ll_rtc.c ****     {
 476:Drivers/STM32L0xx_HAL_Driver/Src/stm32l0xx_ll_rtc.c ****       assert_param(IS_LL_RTC_WEEKDAY(RTC_AlarmStruct->AlarmDateWeekDay));
 477:Drivers/STM32L0xx_HAL_Driver/Src/stm32l0xx_ll_rtc.c ****     }
 478:Drivers/STM32L0xx_HAL_Driver/Src/stm32l0xx_ll_rtc.c ****   }
 479:Drivers/STM32L0xx_HAL_Driver/Src/stm32l0xx_ll_rtc.c ****   else
 480:Drivers/STM32L0xx_HAL_Driver/Src/stm32l0xx_ll_rtc.c ****   {
 481:Drivers/STM32L0xx_HAL_Driver/Src/stm32l0xx_ll_rtc.c ****     if (LL_RTC_GetHourFormat(RTCx) != LL_RTC_HOURFORMAT_24HOUR)
 482:Drivers/STM32L0xx_HAL_Driver/Src/stm32l0xx_ll_rtc.c ****     {
 483:Drivers/STM32L0xx_HAL_Driver/Src/stm32l0xx_ll_rtc.c ****       assert_param(IS_LL_RTC_HOUR12(__LL_RTC_CONVERT_BCD2BIN(RTC_AlarmStruct->AlarmTime.Hours)));
 484:Drivers/STM32L0xx_HAL_Driver/Src/stm32l0xx_ll_rtc.c ****       assert_param(IS_LL_RTC_TIME_FORMAT(RTC_AlarmStruct->AlarmTime.TimeFormat));
 485:Drivers/STM32L0xx_HAL_Driver/Src/stm32l0xx_ll_rtc.c ****     }
ARM GAS  C:\Users\Nathan\AppData\Local\Temp\ccAQTZu2.s 			page 26


 486:Drivers/STM32L0xx_HAL_Driver/Src/stm32l0xx_ll_rtc.c ****     else
 487:Drivers/STM32L0xx_HAL_Driver/Src/stm32l0xx_ll_rtc.c ****     {
 488:Drivers/STM32L0xx_HAL_Driver/Src/stm32l0xx_ll_rtc.c ****       RTC_AlarmStruct->AlarmTime.TimeFormat = 0x00U;
 489:Drivers/STM32L0xx_HAL_Driver/Src/stm32l0xx_ll_rtc.c ****       assert_param(IS_LL_RTC_HOUR24(__LL_RTC_CONVERT_BCD2BIN(RTC_AlarmStruct->AlarmTime.Hours)));
 490:Drivers/STM32L0xx_HAL_Driver/Src/stm32l0xx_ll_rtc.c ****     }
 491:Drivers/STM32L0xx_HAL_Driver/Src/stm32l0xx_ll_rtc.c **** 
 492:Drivers/STM32L0xx_HAL_Driver/Src/stm32l0xx_ll_rtc.c ****     assert_param(IS_LL_RTC_MINUTES(__LL_RTC_CONVERT_BCD2BIN(RTC_AlarmStruct->AlarmTime.Minutes)));
 493:Drivers/STM32L0xx_HAL_Driver/Src/stm32l0xx_ll_rtc.c ****     assert_param(IS_LL_RTC_SECONDS(__LL_RTC_CONVERT_BCD2BIN(RTC_AlarmStruct->AlarmTime.Seconds)));
 494:Drivers/STM32L0xx_HAL_Driver/Src/stm32l0xx_ll_rtc.c **** 
 495:Drivers/STM32L0xx_HAL_Driver/Src/stm32l0xx_ll_rtc.c ****     if (RTC_AlarmStruct->AlarmDateWeekDaySel == LL_RTC_ALMA_DATEWEEKDAYSEL_DATE)
 496:Drivers/STM32L0xx_HAL_Driver/Src/stm32l0xx_ll_rtc.c ****     {
 497:Drivers/STM32L0xx_HAL_Driver/Src/stm32l0xx_ll_rtc.c ****       assert_param(IS_LL_RTC_DAY(__LL_RTC_CONVERT_BCD2BIN(RTC_AlarmStruct->AlarmDateWeekDay)));
 498:Drivers/STM32L0xx_HAL_Driver/Src/stm32l0xx_ll_rtc.c ****     }
 499:Drivers/STM32L0xx_HAL_Driver/Src/stm32l0xx_ll_rtc.c ****     else
 500:Drivers/STM32L0xx_HAL_Driver/Src/stm32l0xx_ll_rtc.c ****     {
 501:Drivers/STM32L0xx_HAL_Driver/Src/stm32l0xx_ll_rtc.c ****       assert_param(IS_LL_RTC_WEEKDAY(__LL_RTC_CONVERT_BCD2BIN(RTC_AlarmStruct->AlarmDateWeekDay)));
 191              		.loc 1 501 7 view .LVU48
 502:Drivers/STM32L0xx_HAL_Driver/Src/stm32l0xx_ll_rtc.c ****     }
 503:Drivers/STM32L0xx_HAL_Driver/Src/stm32l0xx_ll_rtc.c ****   }
 504:Drivers/STM32L0xx_HAL_Driver/Src/stm32l0xx_ll_rtc.c **** 
 505:Drivers/STM32L0xx_HAL_Driver/Src/stm32l0xx_ll_rtc.c ****   /* Disable the write protection for RTC registers */
 506:Drivers/STM32L0xx_HAL_Driver/Src/stm32l0xx_ll_rtc.c ****   LL_RTC_DisableWriteProtection(RTCx);
 192              		.loc 1 506 3 view .LVU49
 193              	.LVL6:
 194              	.LBB116:
 195              	.LBI116:
 758:Drivers/STM32L0xx_HAL_Driver/Inc/stm32l0xx_ll_rtc.h **** }
 759:Drivers/STM32L0xx_HAL_Driver/Inc/stm32l0xx_ll_rtc.h **** 
 760:Drivers/STM32L0xx_HAL_Driver/Inc/stm32l0xx_ll_rtc.h **** /**
 761:Drivers/STM32L0xx_HAL_Driver/Inc/stm32l0xx_ll_rtc.h ****   * @brief  Select the flag to be routed to RTC_ALARM output
 762:Drivers/STM32L0xx_HAL_Driver/Inc/stm32l0xx_ll_rtc.h ****   * @note   Bit is write-protected. @ref LL_RTC_DisableWriteProtection function should be called be
 763:Drivers/STM32L0xx_HAL_Driver/Inc/stm32l0xx_ll_rtc.h ****   * @rmtoll CR           OSEL          LL_RTC_SetAlarmOutEvent
 764:Drivers/STM32L0xx_HAL_Driver/Inc/stm32l0xx_ll_rtc.h ****   * @param  RTCx RTC Instance
 765:Drivers/STM32L0xx_HAL_Driver/Inc/stm32l0xx_ll_rtc.h ****   * @param  AlarmOutput This parameter can be one of the following values:
 766:Drivers/STM32L0xx_HAL_Driver/Inc/stm32l0xx_ll_rtc.h ****   *         @arg @ref LL_RTC_ALARMOUT_DISABLE
 767:Drivers/STM32L0xx_HAL_Driver/Inc/stm32l0xx_ll_rtc.h ****   *         @arg @ref LL_RTC_ALARMOUT_ALMA
 768:Drivers/STM32L0xx_HAL_Driver/Inc/stm32l0xx_ll_rtc.h ****   *         @arg @ref LL_RTC_ALARMOUT_ALMB
 769:Drivers/STM32L0xx_HAL_Driver/Inc/stm32l0xx_ll_rtc.h ****   *         @arg @ref LL_RTC_ALARMOUT_WAKEUP
 770:Drivers/STM32L0xx_HAL_Driver/Inc/stm32l0xx_ll_rtc.h ****   * @retval None
 771:Drivers/STM32L0xx_HAL_Driver/Inc/stm32l0xx_ll_rtc.h ****   */
 772:Drivers/STM32L0xx_HAL_Driver/Inc/stm32l0xx_ll_rtc.h **** __STATIC_INLINE void LL_RTC_SetAlarmOutEvent(RTC_TypeDef *RTCx, uint32_t AlarmOutput)
 773:Drivers/STM32L0xx_HAL_Driver/Inc/stm32l0xx_ll_rtc.h **** {
 774:Drivers/STM32L0xx_HAL_Driver/Inc/stm32l0xx_ll_rtc.h ****   MODIFY_REG(RTCx->CR, RTC_CR_OSEL, AlarmOutput);
 775:Drivers/STM32L0xx_HAL_Driver/Inc/stm32l0xx_ll_rtc.h **** }
 776:Drivers/STM32L0xx_HAL_Driver/Inc/stm32l0xx_ll_rtc.h **** 
 777:Drivers/STM32L0xx_HAL_Driver/Inc/stm32l0xx_ll_rtc.h **** /**
 778:Drivers/STM32L0xx_HAL_Driver/Inc/stm32l0xx_ll_rtc.h ****   * @brief  Get the flag to be routed to RTC_ALARM output
 779:Drivers/STM32L0xx_HAL_Driver/Inc/stm32l0xx_ll_rtc.h ****   * @rmtoll CR           OSEL          LL_RTC_GetAlarmOutEvent
 780:Drivers/STM32L0xx_HAL_Driver/Inc/stm32l0xx_ll_rtc.h ****   * @param  RTCx RTC Instance
 781:Drivers/STM32L0xx_HAL_Driver/Inc/stm32l0xx_ll_rtc.h ****   * @retval Returned value can be one of the following values:
 782:Drivers/STM32L0xx_HAL_Driver/Inc/stm32l0xx_ll_rtc.h ****   *         @arg @ref LL_RTC_ALARMOUT_DISABLE
 783:Drivers/STM32L0xx_HAL_Driver/Inc/stm32l0xx_ll_rtc.h ****   *         @arg @ref LL_RTC_ALARMOUT_ALMA
 784:Drivers/STM32L0xx_HAL_Driver/Inc/stm32l0xx_ll_rtc.h ****   *         @arg @ref LL_RTC_ALARMOUT_ALMB
 785:Drivers/STM32L0xx_HAL_Driver/Inc/stm32l0xx_ll_rtc.h ****   *         @arg @ref LL_RTC_ALARMOUT_WAKEUP
 786:Drivers/STM32L0xx_HAL_Driver/Inc/stm32l0xx_ll_rtc.h ****   */
 787:Drivers/STM32L0xx_HAL_Driver/Inc/stm32l0xx_ll_rtc.h **** __STATIC_INLINE uint32_t LL_RTC_GetAlarmOutEvent(RTC_TypeDef *RTCx)
 788:Drivers/STM32L0xx_HAL_Driver/Inc/stm32l0xx_ll_rtc.h **** {
ARM GAS  C:\Users\Nathan\AppData\Local\Temp\ccAQTZu2.s 			page 27


 789:Drivers/STM32L0xx_HAL_Driver/Inc/stm32l0xx_ll_rtc.h ****   return (uint32_t)(READ_BIT(RTCx->CR, RTC_CR_OSEL));
 790:Drivers/STM32L0xx_HAL_Driver/Inc/stm32l0xx_ll_rtc.h **** }
 791:Drivers/STM32L0xx_HAL_Driver/Inc/stm32l0xx_ll_rtc.h **** 
 792:Drivers/STM32L0xx_HAL_Driver/Inc/stm32l0xx_ll_rtc.h **** /**
 793:Drivers/STM32L0xx_HAL_Driver/Inc/stm32l0xx_ll_rtc.h ****   * @brief  Set RTC_ALARM output type (ALARM in push-pull or open-drain output)
 794:Drivers/STM32L0xx_HAL_Driver/Inc/stm32l0xx_ll_rtc.h ****   * @note   Used only when RTC_ALARM is mapped on PC13
 795:Drivers/STM32L0xx_HAL_Driver/Inc/stm32l0xx_ll_rtc.h ****   * @rmtoll OR        ALARMOUTTYPE  LL_RTC_SetAlarmOutputType
 796:Drivers/STM32L0xx_HAL_Driver/Inc/stm32l0xx_ll_rtc.h ****   * @param  RTCx RTC Instance
 797:Drivers/STM32L0xx_HAL_Driver/Inc/stm32l0xx_ll_rtc.h ****   * @param  Output This parameter can be one of the following values:
 798:Drivers/STM32L0xx_HAL_Driver/Inc/stm32l0xx_ll_rtc.h ****   *         @arg @ref LL_RTC_ALARM_OUTPUTTYPE_OPENDRAIN
 799:Drivers/STM32L0xx_HAL_Driver/Inc/stm32l0xx_ll_rtc.h ****   *         @arg @ref LL_RTC_ALARM_OUTPUTTYPE_PUSHPULL
 800:Drivers/STM32L0xx_HAL_Driver/Inc/stm32l0xx_ll_rtc.h ****   * @retval None
 801:Drivers/STM32L0xx_HAL_Driver/Inc/stm32l0xx_ll_rtc.h ****   */
 802:Drivers/STM32L0xx_HAL_Driver/Inc/stm32l0xx_ll_rtc.h **** __STATIC_INLINE void LL_RTC_SetAlarmOutputType(RTC_TypeDef *RTCx, uint32_t Output)
 803:Drivers/STM32L0xx_HAL_Driver/Inc/stm32l0xx_ll_rtc.h **** {
 804:Drivers/STM32L0xx_HAL_Driver/Inc/stm32l0xx_ll_rtc.h ****   MODIFY_REG(RTCx->OR, RTC_OR_ALARMOUTTYPE, Output);
 805:Drivers/STM32L0xx_HAL_Driver/Inc/stm32l0xx_ll_rtc.h **** }
 806:Drivers/STM32L0xx_HAL_Driver/Inc/stm32l0xx_ll_rtc.h **** 
 807:Drivers/STM32L0xx_HAL_Driver/Inc/stm32l0xx_ll_rtc.h **** /**
 808:Drivers/STM32L0xx_HAL_Driver/Inc/stm32l0xx_ll_rtc.h ****   * @brief  Get RTC_ALARM output type (ALARM in push-pull or open-drain output)
 809:Drivers/STM32L0xx_HAL_Driver/Inc/stm32l0xx_ll_rtc.h ****   * @note   used only when RTC_ALARM is mapped on PC13
 810:Drivers/STM32L0xx_HAL_Driver/Inc/stm32l0xx_ll_rtc.h ****   * @rmtoll OR        ALARMOUTTYPE  LL_RTC_GetAlarmOutputType
 811:Drivers/STM32L0xx_HAL_Driver/Inc/stm32l0xx_ll_rtc.h ****   * @param  RTCx RTC Instance
 812:Drivers/STM32L0xx_HAL_Driver/Inc/stm32l0xx_ll_rtc.h ****   * @retval Returned value can be one of the following values:
 813:Drivers/STM32L0xx_HAL_Driver/Inc/stm32l0xx_ll_rtc.h ****   *         @arg @ref LL_RTC_ALARM_OUTPUTTYPE_OPENDRAIN
 814:Drivers/STM32L0xx_HAL_Driver/Inc/stm32l0xx_ll_rtc.h ****   *         @arg @ref LL_RTC_ALARM_OUTPUTTYPE_PUSHPULL
 815:Drivers/STM32L0xx_HAL_Driver/Inc/stm32l0xx_ll_rtc.h ****   */
 816:Drivers/STM32L0xx_HAL_Driver/Inc/stm32l0xx_ll_rtc.h **** __STATIC_INLINE uint32_t LL_RTC_GetAlarmOutputType(RTC_TypeDef *RTCx)
 817:Drivers/STM32L0xx_HAL_Driver/Inc/stm32l0xx_ll_rtc.h **** {
 818:Drivers/STM32L0xx_HAL_Driver/Inc/stm32l0xx_ll_rtc.h ****   return (uint32_t)(READ_BIT(RTCx->OR, RTC_OR_ALARMOUTTYPE));
 819:Drivers/STM32L0xx_HAL_Driver/Inc/stm32l0xx_ll_rtc.h **** }
 820:Drivers/STM32L0xx_HAL_Driver/Inc/stm32l0xx_ll_rtc.h **** 
 821:Drivers/STM32L0xx_HAL_Driver/Inc/stm32l0xx_ll_rtc.h **** /**
 822:Drivers/STM32L0xx_HAL_Driver/Inc/stm32l0xx_ll_rtc.h ****   * @brief  Enable initialization mode
 823:Drivers/STM32L0xx_HAL_Driver/Inc/stm32l0xx_ll_rtc.h ****   * @note   Initialization mode is used to program time and date register (RTC_TR and RTC_DR)
 824:Drivers/STM32L0xx_HAL_Driver/Inc/stm32l0xx_ll_rtc.h ****   *         and prescaler register (RTC_PRER).
 825:Drivers/STM32L0xx_HAL_Driver/Inc/stm32l0xx_ll_rtc.h ****   *         Counters are stopped and start counting from the new value when INIT is reset.
 826:Drivers/STM32L0xx_HAL_Driver/Inc/stm32l0xx_ll_rtc.h ****   * @rmtoll ISR          INIT          LL_RTC_EnableInitMode
 827:Drivers/STM32L0xx_HAL_Driver/Inc/stm32l0xx_ll_rtc.h ****   * @param  RTCx RTC Instance
 828:Drivers/STM32L0xx_HAL_Driver/Inc/stm32l0xx_ll_rtc.h ****   * @retval None
 829:Drivers/STM32L0xx_HAL_Driver/Inc/stm32l0xx_ll_rtc.h ****   */
 830:Drivers/STM32L0xx_HAL_Driver/Inc/stm32l0xx_ll_rtc.h **** __STATIC_INLINE void LL_RTC_EnableInitMode(RTC_TypeDef *RTCx)
 831:Drivers/STM32L0xx_HAL_Driver/Inc/stm32l0xx_ll_rtc.h **** {
 832:Drivers/STM32L0xx_HAL_Driver/Inc/stm32l0xx_ll_rtc.h ****   /* Set the Initialization mode */
 833:Drivers/STM32L0xx_HAL_Driver/Inc/stm32l0xx_ll_rtc.h ****   WRITE_REG(RTCx->ISR, RTC_INIT_MASK);
 834:Drivers/STM32L0xx_HAL_Driver/Inc/stm32l0xx_ll_rtc.h **** }
 835:Drivers/STM32L0xx_HAL_Driver/Inc/stm32l0xx_ll_rtc.h **** 
 836:Drivers/STM32L0xx_HAL_Driver/Inc/stm32l0xx_ll_rtc.h **** /**
 837:Drivers/STM32L0xx_HAL_Driver/Inc/stm32l0xx_ll_rtc.h ****   * @brief  Disable initialization mode (Free running mode)
 838:Drivers/STM32L0xx_HAL_Driver/Inc/stm32l0xx_ll_rtc.h ****   * @rmtoll ISR          INIT          LL_RTC_DisableInitMode
 839:Drivers/STM32L0xx_HAL_Driver/Inc/stm32l0xx_ll_rtc.h ****   * @param  RTCx RTC Instance
 840:Drivers/STM32L0xx_HAL_Driver/Inc/stm32l0xx_ll_rtc.h ****   * @retval None
 841:Drivers/STM32L0xx_HAL_Driver/Inc/stm32l0xx_ll_rtc.h ****   */
 842:Drivers/STM32L0xx_HAL_Driver/Inc/stm32l0xx_ll_rtc.h **** __STATIC_INLINE void LL_RTC_DisableInitMode(RTC_TypeDef *RTCx)
 843:Drivers/STM32L0xx_HAL_Driver/Inc/stm32l0xx_ll_rtc.h **** {
 844:Drivers/STM32L0xx_HAL_Driver/Inc/stm32l0xx_ll_rtc.h ****   /* Exit Initialization mode */
 845:Drivers/STM32L0xx_HAL_Driver/Inc/stm32l0xx_ll_rtc.h ****   WRITE_REG(RTCx->ISR, (uint32_t)~RTC_ISR_INIT);
ARM GAS  C:\Users\Nathan\AppData\Local\Temp\ccAQTZu2.s 			page 28


 846:Drivers/STM32L0xx_HAL_Driver/Inc/stm32l0xx_ll_rtc.h **** }
 847:Drivers/STM32L0xx_HAL_Driver/Inc/stm32l0xx_ll_rtc.h **** 
 848:Drivers/STM32L0xx_HAL_Driver/Inc/stm32l0xx_ll_rtc.h **** /**
 849:Drivers/STM32L0xx_HAL_Driver/Inc/stm32l0xx_ll_rtc.h ****   * @brief  Set Output polarity (pin is low when ALRAF/ALRBF/WUTF is asserted)
 850:Drivers/STM32L0xx_HAL_Driver/Inc/stm32l0xx_ll_rtc.h ****   * @note   Bit is write-protected. @ref LL_RTC_DisableWriteProtection function should be called be
 851:Drivers/STM32L0xx_HAL_Driver/Inc/stm32l0xx_ll_rtc.h ****   * @rmtoll CR           POL           LL_RTC_SetOutputPolarity
 852:Drivers/STM32L0xx_HAL_Driver/Inc/stm32l0xx_ll_rtc.h ****   * @param  RTCx RTC Instance
 853:Drivers/STM32L0xx_HAL_Driver/Inc/stm32l0xx_ll_rtc.h ****   * @param  Polarity This parameter can be one of the following values:
 854:Drivers/STM32L0xx_HAL_Driver/Inc/stm32l0xx_ll_rtc.h ****   *         @arg @ref LL_RTC_OUTPUTPOLARITY_PIN_HIGH
 855:Drivers/STM32L0xx_HAL_Driver/Inc/stm32l0xx_ll_rtc.h ****   *         @arg @ref LL_RTC_OUTPUTPOLARITY_PIN_LOW
 856:Drivers/STM32L0xx_HAL_Driver/Inc/stm32l0xx_ll_rtc.h ****   * @retval None
 857:Drivers/STM32L0xx_HAL_Driver/Inc/stm32l0xx_ll_rtc.h ****   */
 858:Drivers/STM32L0xx_HAL_Driver/Inc/stm32l0xx_ll_rtc.h **** __STATIC_INLINE void LL_RTC_SetOutputPolarity(RTC_TypeDef *RTCx, uint32_t Polarity)
 859:Drivers/STM32L0xx_HAL_Driver/Inc/stm32l0xx_ll_rtc.h **** {
 860:Drivers/STM32L0xx_HAL_Driver/Inc/stm32l0xx_ll_rtc.h ****   MODIFY_REG(RTCx->CR, RTC_CR_POL, Polarity);
 861:Drivers/STM32L0xx_HAL_Driver/Inc/stm32l0xx_ll_rtc.h **** }
 862:Drivers/STM32L0xx_HAL_Driver/Inc/stm32l0xx_ll_rtc.h **** 
 863:Drivers/STM32L0xx_HAL_Driver/Inc/stm32l0xx_ll_rtc.h **** /**
 864:Drivers/STM32L0xx_HAL_Driver/Inc/stm32l0xx_ll_rtc.h ****   * @brief  Get Output polarity
 865:Drivers/STM32L0xx_HAL_Driver/Inc/stm32l0xx_ll_rtc.h ****   * @rmtoll CR           POL           LL_RTC_GetOutputPolarity
 866:Drivers/STM32L0xx_HAL_Driver/Inc/stm32l0xx_ll_rtc.h ****   * @param  RTCx RTC Instance
 867:Drivers/STM32L0xx_HAL_Driver/Inc/stm32l0xx_ll_rtc.h ****   * @retval Returned value can be one of the following values:
 868:Drivers/STM32L0xx_HAL_Driver/Inc/stm32l0xx_ll_rtc.h ****   *         @arg @ref LL_RTC_OUTPUTPOLARITY_PIN_HIGH
 869:Drivers/STM32L0xx_HAL_Driver/Inc/stm32l0xx_ll_rtc.h ****   *         @arg @ref LL_RTC_OUTPUTPOLARITY_PIN_LOW
 870:Drivers/STM32L0xx_HAL_Driver/Inc/stm32l0xx_ll_rtc.h ****   */
 871:Drivers/STM32L0xx_HAL_Driver/Inc/stm32l0xx_ll_rtc.h **** __STATIC_INLINE uint32_t LL_RTC_GetOutputPolarity(RTC_TypeDef *RTCx)
 872:Drivers/STM32L0xx_HAL_Driver/Inc/stm32l0xx_ll_rtc.h **** {
 873:Drivers/STM32L0xx_HAL_Driver/Inc/stm32l0xx_ll_rtc.h ****   return (uint32_t)(READ_BIT(RTCx->CR, RTC_CR_POL));
 874:Drivers/STM32L0xx_HAL_Driver/Inc/stm32l0xx_ll_rtc.h **** }
 875:Drivers/STM32L0xx_HAL_Driver/Inc/stm32l0xx_ll_rtc.h **** 
 876:Drivers/STM32L0xx_HAL_Driver/Inc/stm32l0xx_ll_rtc.h **** /**
 877:Drivers/STM32L0xx_HAL_Driver/Inc/stm32l0xx_ll_rtc.h ****   * @brief  Enable Bypass the shadow registers
 878:Drivers/STM32L0xx_HAL_Driver/Inc/stm32l0xx_ll_rtc.h ****   * @note   Bit is write-protected. @ref LL_RTC_DisableWriteProtection function should be called be
 879:Drivers/STM32L0xx_HAL_Driver/Inc/stm32l0xx_ll_rtc.h ****   * @rmtoll CR           BYPSHAD       LL_RTC_EnableShadowRegBypass
 880:Drivers/STM32L0xx_HAL_Driver/Inc/stm32l0xx_ll_rtc.h ****   * @param  RTCx RTC Instance
 881:Drivers/STM32L0xx_HAL_Driver/Inc/stm32l0xx_ll_rtc.h ****   * @retval None
 882:Drivers/STM32L0xx_HAL_Driver/Inc/stm32l0xx_ll_rtc.h ****   */
 883:Drivers/STM32L0xx_HAL_Driver/Inc/stm32l0xx_ll_rtc.h **** __STATIC_INLINE void LL_RTC_EnableShadowRegBypass(RTC_TypeDef *RTCx)
 884:Drivers/STM32L0xx_HAL_Driver/Inc/stm32l0xx_ll_rtc.h **** {
 885:Drivers/STM32L0xx_HAL_Driver/Inc/stm32l0xx_ll_rtc.h ****   SET_BIT(RTCx->CR, RTC_CR_BYPSHAD);
 886:Drivers/STM32L0xx_HAL_Driver/Inc/stm32l0xx_ll_rtc.h **** }
 887:Drivers/STM32L0xx_HAL_Driver/Inc/stm32l0xx_ll_rtc.h **** 
 888:Drivers/STM32L0xx_HAL_Driver/Inc/stm32l0xx_ll_rtc.h **** /**
 889:Drivers/STM32L0xx_HAL_Driver/Inc/stm32l0xx_ll_rtc.h ****   * @brief  Disable Bypass the shadow registers
 890:Drivers/STM32L0xx_HAL_Driver/Inc/stm32l0xx_ll_rtc.h ****   * @rmtoll CR           BYPSHAD       LL_RTC_DisableShadowRegBypass
 891:Drivers/STM32L0xx_HAL_Driver/Inc/stm32l0xx_ll_rtc.h ****   * @param  RTCx RTC Instance
 892:Drivers/STM32L0xx_HAL_Driver/Inc/stm32l0xx_ll_rtc.h ****   * @retval None
 893:Drivers/STM32L0xx_HAL_Driver/Inc/stm32l0xx_ll_rtc.h ****   */
 894:Drivers/STM32L0xx_HAL_Driver/Inc/stm32l0xx_ll_rtc.h **** __STATIC_INLINE void LL_RTC_DisableShadowRegBypass(RTC_TypeDef *RTCx)
 895:Drivers/STM32L0xx_HAL_Driver/Inc/stm32l0xx_ll_rtc.h **** {
 896:Drivers/STM32L0xx_HAL_Driver/Inc/stm32l0xx_ll_rtc.h ****   CLEAR_BIT(RTCx->CR, RTC_CR_BYPSHAD);
 897:Drivers/STM32L0xx_HAL_Driver/Inc/stm32l0xx_ll_rtc.h **** }
 898:Drivers/STM32L0xx_HAL_Driver/Inc/stm32l0xx_ll_rtc.h **** 
 899:Drivers/STM32L0xx_HAL_Driver/Inc/stm32l0xx_ll_rtc.h **** /**
 900:Drivers/STM32L0xx_HAL_Driver/Inc/stm32l0xx_ll_rtc.h ****   * @brief  Check if Shadow registers bypass is enabled or not.
 901:Drivers/STM32L0xx_HAL_Driver/Inc/stm32l0xx_ll_rtc.h ****   * @rmtoll CR           BYPSHAD       LL_RTC_IsShadowRegBypassEnabled
 902:Drivers/STM32L0xx_HAL_Driver/Inc/stm32l0xx_ll_rtc.h ****   * @param  RTCx RTC Instance
ARM GAS  C:\Users\Nathan\AppData\Local\Temp\ccAQTZu2.s 			page 29


 903:Drivers/STM32L0xx_HAL_Driver/Inc/stm32l0xx_ll_rtc.h ****   * @retval State of bit (1 or 0).
 904:Drivers/STM32L0xx_HAL_Driver/Inc/stm32l0xx_ll_rtc.h ****   */
 905:Drivers/STM32L0xx_HAL_Driver/Inc/stm32l0xx_ll_rtc.h **** __STATIC_INLINE uint32_t LL_RTC_IsShadowRegBypassEnabled(RTC_TypeDef *RTCx)
 906:Drivers/STM32L0xx_HAL_Driver/Inc/stm32l0xx_ll_rtc.h **** {
 907:Drivers/STM32L0xx_HAL_Driver/Inc/stm32l0xx_ll_rtc.h ****   return ((READ_BIT(RTCx->CR, RTC_CR_BYPSHAD) == (RTC_CR_BYPSHAD)) ? 1UL : 0UL);
 908:Drivers/STM32L0xx_HAL_Driver/Inc/stm32l0xx_ll_rtc.h **** }
 909:Drivers/STM32L0xx_HAL_Driver/Inc/stm32l0xx_ll_rtc.h **** 
 910:Drivers/STM32L0xx_HAL_Driver/Inc/stm32l0xx_ll_rtc.h **** /**
 911:Drivers/STM32L0xx_HAL_Driver/Inc/stm32l0xx_ll_rtc.h ****   * @brief  Enable RTC_REFIN reference clock detection (50 or 60 Hz)
 912:Drivers/STM32L0xx_HAL_Driver/Inc/stm32l0xx_ll_rtc.h ****   * @note   Bit is write-protected. @ref LL_RTC_DisableWriteProtection function should be called be
 913:Drivers/STM32L0xx_HAL_Driver/Inc/stm32l0xx_ll_rtc.h ****   * @note   It can be written in initialization mode only (@ref LL_RTC_EnableInitMode function)
 914:Drivers/STM32L0xx_HAL_Driver/Inc/stm32l0xx_ll_rtc.h ****   * @rmtoll CR           REFCKON       LL_RTC_EnableRefClock
 915:Drivers/STM32L0xx_HAL_Driver/Inc/stm32l0xx_ll_rtc.h ****   * @param  RTCx RTC Instance
 916:Drivers/STM32L0xx_HAL_Driver/Inc/stm32l0xx_ll_rtc.h ****   * @retval None
 917:Drivers/STM32L0xx_HAL_Driver/Inc/stm32l0xx_ll_rtc.h ****   */
 918:Drivers/STM32L0xx_HAL_Driver/Inc/stm32l0xx_ll_rtc.h **** __STATIC_INLINE void LL_RTC_EnableRefClock(RTC_TypeDef *RTCx)
 919:Drivers/STM32L0xx_HAL_Driver/Inc/stm32l0xx_ll_rtc.h **** {
 920:Drivers/STM32L0xx_HAL_Driver/Inc/stm32l0xx_ll_rtc.h ****   SET_BIT(RTCx->CR, RTC_CR_REFCKON);
 921:Drivers/STM32L0xx_HAL_Driver/Inc/stm32l0xx_ll_rtc.h **** }
 922:Drivers/STM32L0xx_HAL_Driver/Inc/stm32l0xx_ll_rtc.h **** 
 923:Drivers/STM32L0xx_HAL_Driver/Inc/stm32l0xx_ll_rtc.h **** /**
 924:Drivers/STM32L0xx_HAL_Driver/Inc/stm32l0xx_ll_rtc.h ****   * @brief  Disable RTC_REFIN reference clock detection (50 or 60 Hz)
 925:Drivers/STM32L0xx_HAL_Driver/Inc/stm32l0xx_ll_rtc.h ****   * @note   Bit is write-protected. @ref LL_RTC_DisableWriteProtection function should be called be
 926:Drivers/STM32L0xx_HAL_Driver/Inc/stm32l0xx_ll_rtc.h ****   * @note   It can be written in initialization mode only (@ref LL_RTC_EnableInitMode function)
 927:Drivers/STM32L0xx_HAL_Driver/Inc/stm32l0xx_ll_rtc.h ****   * @rmtoll CR           REFCKON       LL_RTC_DisableRefClock
 928:Drivers/STM32L0xx_HAL_Driver/Inc/stm32l0xx_ll_rtc.h ****   * @param  RTCx RTC Instance
 929:Drivers/STM32L0xx_HAL_Driver/Inc/stm32l0xx_ll_rtc.h ****   * @retval None
 930:Drivers/STM32L0xx_HAL_Driver/Inc/stm32l0xx_ll_rtc.h ****   */
 931:Drivers/STM32L0xx_HAL_Driver/Inc/stm32l0xx_ll_rtc.h **** __STATIC_INLINE void LL_RTC_DisableRefClock(RTC_TypeDef *RTCx)
 932:Drivers/STM32L0xx_HAL_Driver/Inc/stm32l0xx_ll_rtc.h **** {
 933:Drivers/STM32L0xx_HAL_Driver/Inc/stm32l0xx_ll_rtc.h ****   CLEAR_BIT(RTCx->CR, RTC_CR_REFCKON);
 934:Drivers/STM32L0xx_HAL_Driver/Inc/stm32l0xx_ll_rtc.h **** }
 935:Drivers/STM32L0xx_HAL_Driver/Inc/stm32l0xx_ll_rtc.h **** 
 936:Drivers/STM32L0xx_HAL_Driver/Inc/stm32l0xx_ll_rtc.h **** /**
 937:Drivers/STM32L0xx_HAL_Driver/Inc/stm32l0xx_ll_rtc.h ****   * @brief  Set Asynchronous prescaler factor
 938:Drivers/STM32L0xx_HAL_Driver/Inc/stm32l0xx_ll_rtc.h ****   * @rmtoll PRER         PREDIV_A      LL_RTC_SetAsynchPrescaler
 939:Drivers/STM32L0xx_HAL_Driver/Inc/stm32l0xx_ll_rtc.h ****   * @param  RTCx RTC Instance
 940:Drivers/STM32L0xx_HAL_Driver/Inc/stm32l0xx_ll_rtc.h ****   * @param  AsynchPrescaler Value between Min_Data = 0 and Max_Data = 0x7F
 941:Drivers/STM32L0xx_HAL_Driver/Inc/stm32l0xx_ll_rtc.h ****   * @retval None
 942:Drivers/STM32L0xx_HAL_Driver/Inc/stm32l0xx_ll_rtc.h ****   */
 943:Drivers/STM32L0xx_HAL_Driver/Inc/stm32l0xx_ll_rtc.h **** __STATIC_INLINE void LL_RTC_SetAsynchPrescaler(RTC_TypeDef *RTCx, uint32_t AsynchPrescaler)
 944:Drivers/STM32L0xx_HAL_Driver/Inc/stm32l0xx_ll_rtc.h **** {
 945:Drivers/STM32L0xx_HAL_Driver/Inc/stm32l0xx_ll_rtc.h ****   MODIFY_REG(RTCx->PRER, RTC_PRER_PREDIV_A, AsynchPrescaler << RTC_PRER_PREDIV_A_Pos);
 946:Drivers/STM32L0xx_HAL_Driver/Inc/stm32l0xx_ll_rtc.h **** }
 947:Drivers/STM32L0xx_HAL_Driver/Inc/stm32l0xx_ll_rtc.h **** 
 948:Drivers/STM32L0xx_HAL_Driver/Inc/stm32l0xx_ll_rtc.h **** /**
 949:Drivers/STM32L0xx_HAL_Driver/Inc/stm32l0xx_ll_rtc.h ****   * @brief  Set Synchronous prescaler factor
 950:Drivers/STM32L0xx_HAL_Driver/Inc/stm32l0xx_ll_rtc.h ****   * @rmtoll PRER         PREDIV_S      LL_RTC_SetSynchPrescaler
 951:Drivers/STM32L0xx_HAL_Driver/Inc/stm32l0xx_ll_rtc.h ****   * @param  RTCx RTC Instance
 952:Drivers/STM32L0xx_HAL_Driver/Inc/stm32l0xx_ll_rtc.h ****   * @param  SynchPrescaler Value between Min_Data = 0 and Max_Data = 0x7FFF
 953:Drivers/STM32L0xx_HAL_Driver/Inc/stm32l0xx_ll_rtc.h ****   * @retval None
 954:Drivers/STM32L0xx_HAL_Driver/Inc/stm32l0xx_ll_rtc.h ****   */
 955:Drivers/STM32L0xx_HAL_Driver/Inc/stm32l0xx_ll_rtc.h **** __STATIC_INLINE void LL_RTC_SetSynchPrescaler(RTC_TypeDef *RTCx, uint32_t SynchPrescaler)
 956:Drivers/STM32L0xx_HAL_Driver/Inc/stm32l0xx_ll_rtc.h **** {
 957:Drivers/STM32L0xx_HAL_Driver/Inc/stm32l0xx_ll_rtc.h ****   MODIFY_REG(RTCx->PRER, RTC_PRER_PREDIV_S, SynchPrescaler);
 958:Drivers/STM32L0xx_HAL_Driver/Inc/stm32l0xx_ll_rtc.h **** }
 959:Drivers/STM32L0xx_HAL_Driver/Inc/stm32l0xx_ll_rtc.h **** 
ARM GAS  C:\Users\Nathan\AppData\Local\Temp\ccAQTZu2.s 			page 30


 960:Drivers/STM32L0xx_HAL_Driver/Inc/stm32l0xx_ll_rtc.h **** /**
 961:Drivers/STM32L0xx_HAL_Driver/Inc/stm32l0xx_ll_rtc.h ****   * @brief  Get Asynchronous prescaler factor
 962:Drivers/STM32L0xx_HAL_Driver/Inc/stm32l0xx_ll_rtc.h ****   * @rmtoll PRER         PREDIV_A      LL_RTC_GetAsynchPrescaler
 963:Drivers/STM32L0xx_HAL_Driver/Inc/stm32l0xx_ll_rtc.h ****   * @param  RTCx RTC Instance
 964:Drivers/STM32L0xx_HAL_Driver/Inc/stm32l0xx_ll_rtc.h ****   * @retval Value between Min_Data = 0 and Max_Data = 0x7F
 965:Drivers/STM32L0xx_HAL_Driver/Inc/stm32l0xx_ll_rtc.h ****   */
 966:Drivers/STM32L0xx_HAL_Driver/Inc/stm32l0xx_ll_rtc.h **** __STATIC_INLINE uint32_t LL_RTC_GetAsynchPrescaler(RTC_TypeDef *RTCx)
 967:Drivers/STM32L0xx_HAL_Driver/Inc/stm32l0xx_ll_rtc.h **** {
 968:Drivers/STM32L0xx_HAL_Driver/Inc/stm32l0xx_ll_rtc.h ****   return (uint32_t)(READ_BIT(RTCx->PRER, RTC_PRER_PREDIV_A) >> RTC_PRER_PREDIV_A_Pos);
 969:Drivers/STM32L0xx_HAL_Driver/Inc/stm32l0xx_ll_rtc.h **** }
 970:Drivers/STM32L0xx_HAL_Driver/Inc/stm32l0xx_ll_rtc.h **** 
 971:Drivers/STM32L0xx_HAL_Driver/Inc/stm32l0xx_ll_rtc.h **** /**
 972:Drivers/STM32L0xx_HAL_Driver/Inc/stm32l0xx_ll_rtc.h ****   * @brief  Get Synchronous prescaler factor
 973:Drivers/STM32L0xx_HAL_Driver/Inc/stm32l0xx_ll_rtc.h ****   * @rmtoll PRER         PREDIV_S      LL_RTC_GetSynchPrescaler
 974:Drivers/STM32L0xx_HAL_Driver/Inc/stm32l0xx_ll_rtc.h ****   * @param  RTCx RTC Instance
 975:Drivers/STM32L0xx_HAL_Driver/Inc/stm32l0xx_ll_rtc.h ****   * @retval Value between Min_Data = 0 and Max_Data = 0x7FFF
 976:Drivers/STM32L0xx_HAL_Driver/Inc/stm32l0xx_ll_rtc.h ****   */
 977:Drivers/STM32L0xx_HAL_Driver/Inc/stm32l0xx_ll_rtc.h **** __STATIC_INLINE uint32_t LL_RTC_GetSynchPrescaler(RTC_TypeDef *RTCx)
 978:Drivers/STM32L0xx_HAL_Driver/Inc/stm32l0xx_ll_rtc.h **** {
 979:Drivers/STM32L0xx_HAL_Driver/Inc/stm32l0xx_ll_rtc.h ****   return (uint32_t)(READ_BIT(RTCx->PRER, RTC_PRER_PREDIV_S));
 980:Drivers/STM32L0xx_HAL_Driver/Inc/stm32l0xx_ll_rtc.h **** }
 981:Drivers/STM32L0xx_HAL_Driver/Inc/stm32l0xx_ll_rtc.h **** 
 982:Drivers/STM32L0xx_HAL_Driver/Inc/stm32l0xx_ll_rtc.h **** /**
 983:Drivers/STM32L0xx_HAL_Driver/Inc/stm32l0xx_ll_rtc.h ****   * @brief  Enable the write protection for RTC registers.
 984:Drivers/STM32L0xx_HAL_Driver/Inc/stm32l0xx_ll_rtc.h ****   * @rmtoll WPR          KEY           LL_RTC_EnableWriteProtection
 985:Drivers/STM32L0xx_HAL_Driver/Inc/stm32l0xx_ll_rtc.h ****   * @param  RTCx RTC Instance
 986:Drivers/STM32L0xx_HAL_Driver/Inc/stm32l0xx_ll_rtc.h ****   * @retval None
 987:Drivers/STM32L0xx_HAL_Driver/Inc/stm32l0xx_ll_rtc.h ****   */
 988:Drivers/STM32L0xx_HAL_Driver/Inc/stm32l0xx_ll_rtc.h **** __STATIC_INLINE void LL_RTC_EnableWriteProtection(RTC_TypeDef *RTCx)
 989:Drivers/STM32L0xx_HAL_Driver/Inc/stm32l0xx_ll_rtc.h **** {
 990:Drivers/STM32L0xx_HAL_Driver/Inc/stm32l0xx_ll_rtc.h ****   WRITE_REG(RTCx->WPR, RTC_WRITE_PROTECTION_DISABLE);
 991:Drivers/STM32L0xx_HAL_Driver/Inc/stm32l0xx_ll_rtc.h **** }
 992:Drivers/STM32L0xx_HAL_Driver/Inc/stm32l0xx_ll_rtc.h **** 
 993:Drivers/STM32L0xx_HAL_Driver/Inc/stm32l0xx_ll_rtc.h **** /**
 994:Drivers/STM32L0xx_HAL_Driver/Inc/stm32l0xx_ll_rtc.h ****   * @brief  Disable the write protection for RTC registers.
 995:Drivers/STM32L0xx_HAL_Driver/Inc/stm32l0xx_ll_rtc.h ****   * @rmtoll WPR          KEY           LL_RTC_DisableWriteProtection
 996:Drivers/STM32L0xx_HAL_Driver/Inc/stm32l0xx_ll_rtc.h ****   * @param  RTCx RTC Instance
 997:Drivers/STM32L0xx_HAL_Driver/Inc/stm32l0xx_ll_rtc.h ****   * @retval None
 998:Drivers/STM32L0xx_HAL_Driver/Inc/stm32l0xx_ll_rtc.h ****   */
 999:Drivers/STM32L0xx_HAL_Driver/Inc/stm32l0xx_ll_rtc.h **** __STATIC_INLINE void LL_RTC_DisableWriteProtection(RTC_TypeDef *RTCx)
 196              		.loc 2 999 22 view .LVU50
 197              	.LBB117:
1000:Drivers/STM32L0xx_HAL_Driver/Inc/stm32l0xx_ll_rtc.h **** {
1001:Drivers/STM32L0xx_HAL_Driver/Inc/stm32l0xx_ll_rtc.h ****   WRITE_REG(RTCx->WPR, RTC_WRITE_PROTECTION_ENABLE_1);
 198              		.loc 2 1001 3 view .LVU51
 199 001e CA23     		movs	r3, #202
 200 0020 6362     		str	r3, [r4, #36]
1002:Drivers/STM32L0xx_HAL_Driver/Inc/stm32l0xx_ll_rtc.h ****   WRITE_REG(RTCx->WPR, RTC_WRITE_PROTECTION_ENABLE_2);
 201              		.loc 2 1002 3 view .LVU52
 202 0022 773B     		subs	r3, r3, #119
 203 0024 6362     		str	r3, [r4, #36]
 204              	.LVL7:
 205              		.loc 2 1002 3 is_stmt 0 view .LVU53
 206              	.LBE117:
 207              	.LBE116:
 507:Drivers/STM32L0xx_HAL_Driver/Src/stm32l0xx_ll_rtc.c **** 
 508:Drivers/STM32L0xx_HAL_Driver/Src/stm32l0xx_ll_rtc.c ****   /* Select weekday selection */
ARM GAS  C:\Users\Nathan\AppData\Local\Temp\ccAQTZu2.s 			page 31


 509:Drivers/STM32L0xx_HAL_Driver/Src/stm32l0xx_ll_rtc.c ****   if (RTC_AlarmStruct->AlarmDateWeekDaySel == LL_RTC_ALMA_DATEWEEKDAYSEL_DATE)
 208              		.loc 1 509 3 is_stmt 1 view .LVU54
 209              		.loc 1 509 6 is_stmt 0 view .LVU55
 210 0026 EB68     		ldr	r3, [r5, #12]
 211 0028 002B     		cmp	r3, #0
 212 002a 27D1     		bne	.L9
 510:Drivers/STM32L0xx_HAL_Driver/Src/stm32l0xx_ll_rtc.c ****   {
 511:Drivers/STM32L0xx_HAL_Driver/Src/stm32l0xx_ll_rtc.c ****     /* Set the date for ALARM */
 512:Drivers/STM32L0xx_HAL_Driver/Src/stm32l0xx_ll_rtc.c ****     LL_RTC_ALMA_DisableWeekday(RTCx);
 213              		.loc 1 512 5 is_stmt 1 view .LVU56
 214              	.LVL8:
 215              	.LBB118:
 216              	.LBI118:
1003:Drivers/STM32L0xx_HAL_Driver/Inc/stm32l0xx_ll_rtc.h **** }
1004:Drivers/STM32L0xx_HAL_Driver/Inc/stm32l0xx_ll_rtc.h **** 
1005:Drivers/STM32L0xx_HAL_Driver/Inc/stm32l0xx_ll_rtc.h **** /**
1006:Drivers/STM32L0xx_HAL_Driver/Inc/stm32l0xx_ll_rtc.h ****   * @brief  Enable RTC_OUT remap
1007:Drivers/STM32L0xx_HAL_Driver/Inc/stm32l0xx_ll_rtc.h ****   * @rmtoll OR           OUT_RMP       LL_RTC_EnableOutRemap
1008:Drivers/STM32L0xx_HAL_Driver/Inc/stm32l0xx_ll_rtc.h ****   * @param  RTCx RTC Instance
1009:Drivers/STM32L0xx_HAL_Driver/Inc/stm32l0xx_ll_rtc.h ****   * @retval None
1010:Drivers/STM32L0xx_HAL_Driver/Inc/stm32l0xx_ll_rtc.h ****   */
1011:Drivers/STM32L0xx_HAL_Driver/Inc/stm32l0xx_ll_rtc.h **** __STATIC_INLINE void LL_RTC_EnableOutRemap(RTC_TypeDef *RTCx)
1012:Drivers/STM32L0xx_HAL_Driver/Inc/stm32l0xx_ll_rtc.h **** {
1013:Drivers/STM32L0xx_HAL_Driver/Inc/stm32l0xx_ll_rtc.h ****   SET_BIT(RTCx->OR, RTC_OR_OUT_RMP);
1014:Drivers/STM32L0xx_HAL_Driver/Inc/stm32l0xx_ll_rtc.h **** }
1015:Drivers/STM32L0xx_HAL_Driver/Inc/stm32l0xx_ll_rtc.h **** 
1016:Drivers/STM32L0xx_HAL_Driver/Inc/stm32l0xx_ll_rtc.h **** /**
1017:Drivers/STM32L0xx_HAL_Driver/Inc/stm32l0xx_ll_rtc.h ****   * @brief  Disable RTC_OUT remap
1018:Drivers/STM32L0xx_HAL_Driver/Inc/stm32l0xx_ll_rtc.h ****   * @rmtoll OR           OUT_RMP       LL_RTC_DisableOutRemap
1019:Drivers/STM32L0xx_HAL_Driver/Inc/stm32l0xx_ll_rtc.h ****   * @param  RTCx RTC Instance
1020:Drivers/STM32L0xx_HAL_Driver/Inc/stm32l0xx_ll_rtc.h ****   * @retval None
1021:Drivers/STM32L0xx_HAL_Driver/Inc/stm32l0xx_ll_rtc.h ****   */
1022:Drivers/STM32L0xx_HAL_Driver/Inc/stm32l0xx_ll_rtc.h **** __STATIC_INLINE void LL_RTC_DisableOutRemap(RTC_TypeDef *RTCx)
1023:Drivers/STM32L0xx_HAL_Driver/Inc/stm32l0xx_ll_rtc.h **** {
1024:Drivers/STM32L0xx_HAL_Driver/Inc/stm32l0xx_ll_rtc.h ****   CLEAR_BIT(RTCx->OR, RTC_OR_OUT_RMP);
1025:Drivers/STM32L0xx_HAL_Driver/Inc/stm32l0xx_ll_rtc.h **** }
1026:Drivers/STM32L0xx_HAL_Driver/Inc/stm32l0xx_ll_rtc.h **** 
1027:Drivers/STM32L0xx_HAL_Driver/Inc/stm32l0xx_ll_rtc.h **** /**
1028:Drivers/STM32L0xx_HAL_Driver/Inc/stm32l0xx_ll_rtc.h ****   * @}
1029:Drivers/STM32L0xx_HAL_Driver/Inc/stm32l0xx_ll_rtc.h ****   */
1030:Drivers/STM32L0xx_HAL_Driver/Inc/stm32l0xx_ll_rtc.h **** 
1031:Drivers/STM32L0xx_HAL_Driver/Inc/stm32l0xx_ll_rtc.h **** /** @defgroup RTC_LL_EF_Time Time
1032:Drivers/STM32L0xx_HAL_Driver/Inc/stm32l0xx_ll_rtc.h ****   * @{
1033:Drivers/STM32L0xx_HAL_Driver/Inc/stm32l0xx_ll_rtc.h ****   */
1034:Drivers/STM32L0xx_HAL_Driver/Inc/stm32l0xx_ll_rtc.h **** 
1035:Drivers/STM32L0xx_HAL_Driver/Inc/stm32l0xx_ll_rtc.h **** /**
1036:Drivers/STM32L0xx_HAL_Driver/Inc/stm32l0xx_ll_rtc.h ****   * @brief  Set time format (AM/24-hour or PM notation)
1037:Drivers/STM32L0xx_HAL_Driver/Inc/stm32l0xx_ll_rtc.h ****   * @note   Bit is write-protected. @ref LL_RTC_DisableWriteProtection function should be called be
1038:Drivers/STM32L0xx_HAL_Driver/Inc/stm32l0xx_ll_rtc.h ****   * @note   It can be written in initialization mode only (@ref LL_RTC_EnableInitMode function)
1039:Drivers/STM32L0xx_HAL_Driver/Inc/stm32l0xx_ll_rtc.h ****   * @rmtoll TR           PM            LL_RTC_TIME_SetFormat
1040:Drivers/STM32L0xx_HAL_Driver/Inc/stm32l0xx_ll_rtc.h ****   * @param  RTCx RTC Instance
1041:Drivers/STM32L0xx_HAL_Driver/Inc/stm32l0xx_ll_rtc.h ****   * @param  TimeFormat This parameter can be one of the following values:
1042:Drivers/STM32L0xx_HAL_Driver/Inc/stm32l0xx_ll_rtc.h ****   *         @arg @ref LL_RTC_TIME_FORMAT_AM_OR_24
1043:Drivers/STM32L0xx_HAL_Driver/Inc/stm32l0xx_ll_rtc.h ****   *         @arg @ref LL_RTC_TIME_FORMAT_PM
1044:Drivers/STM32L0xx_HAL_Driver/Inc/stm32l0xx_ll_rtc.h ****   * @retval None
1045:Drivers/STM32L0xx_HAL_Driver/Inc/stm32l0xx_ll_rtc.h ****   */
1046:Drivers/STM32L0xx_HAL_Driver/Inc/stm32l0xx_ll_rtc.h **** __STATIC_INLINE void LL_RTC_TIME_SetFormat(RTC_TypeDef *RTCx, uint32_t TimeFormat)
ARM GAS  C:\Users\Nathan\AppData\Local\Temp\ccAQTZu2.s 			page 32


1047:Drivers/STM32L0xx_HAL_Driver/Inc/stm32l0xx_ll_rtc.h **** {
1048:Drivers/STM32L0xx_HAL_Driver/Inc/stm32l0xx_ll_rtc.h ****   MODIFY_REG(RTCx->TR, RTC_TR_PM, TimeFormat);
1049:Drivers/STM32L0xx_HAL_Driver/Inc/stm32l0xx_ll_rtc.h **** }
1050:Drivers/STM32L0xx_HAL_Driver/Inc/stm32l0xx_ll_rtc.h **** 
1051:Drivers/STM32L0xx_HAL_Driver/Inc/stm32l0xx_ll_rtc.h **** /**
1052:Drivers/STM32L0xx_HAL_Driver/Inc/stm32l0xx_ll_rtc.h ****   * @brief  Get time format (AM or PM notation)
1053:Drivers/STM32L0xx_HAL_Driver/Inc/stm32l0xx_ll_rtc.h ****   * @note if shadow mode is disabled (BYPSHAD=0), need to check if RSF flag is set
1054:Drivers/STM32L0xx_HAL_Driver/Inc/stm32l0xx_ll_rtc.h ****   *       before reading this bit
1055:Drivers/STM32L0xx_HAL_Driver/Inc/stm32l0xx_ll_rtc.h ****   * @note Read either RTC_SSR or RTC_TR locks the values in the higher-order calendar
1056:Drivers/STM32L0xx_HAL_Driver/Inc/stm32l0xx_ll_rtc.h ****   *       shadow registers until RTC_DR is read (LL_RTC_ReadReg(RTC, DR)).
1057:Drivers/STM32L0xx_HAL_Driver/Inc/stm32l0xx_ll_rtc.h ****   * @rmtoll TR           PM            LL_RTC_TIME_GetFormat
1058:Drivers/STM32L0xx_HAL_Driver/Inc/stm32l0xx_ll_rtc.h ****   * @param  RTCx RTC Instance
1059:Drivers/STM32L0xx_HAL_Driver/Inc/stm32l0xx_ll_rtc.h ****   * @retval Returned value can be one of the following values:
1060:Drivers/STM32L0xx_HAL_Driver/Inc/stm32l0xx_ll_rtc.h ****   *         @arg @ref LL_RTC_TIME_FORMAT_AM_OR_24
1061:Drivers/STM32L0xx_HAL_Driver/Inc/stm32l0xx_ll_rtc.h ****   *         @arg @ref LL_RTC_TIME_FORMAT_PM
1062:Drivers/STM32L0xx_HAL_Driver/Inc/stm32l0xx_ll_rtc.h ****   */
1063:Drivers/STM32L0xx_HAL_Driver/Inc/stm32l0xx_ll_rtc.h **** __STATIC_INLINE uint32_t LL_RTC_TIME_GetFormat(RTC_TypeDef *RTCx)
1064:Drivers/STM32L0xx_HAL_Driver/Inc/stm32l0xx_ll_rtc.h **** {
1065:Drivers/STM32L0xx_HAL_Driver/Inc/stm32l0xx_ll_rtc.h ****   return (uint32_t)(READ_BIT(RTCx->TR, RTC_TR_PM));
1066:Drivers/STM32L0xx_HAL_Driver/Inc/stm32l0xx_ll_rtc.h **** }
1067:Drivers/STM32L0xx_HAL_Driver/Inc/stm32l0xx_ll_rtc.h **** 
1068:Drivers/STM32L0xx_HAL_Driver/Inc/stm32l0xx_ll_rtc.h **** /**
1069:Drivers/STM32L0xx_HAL_Driver/Inc/stm32l0xx_ll_rtc.h ****   * @brief  Set Hours in BCD format
1070:Drivers/STM32L0xx_HAL_Driver/Inc/stm32l0xx_ll_rtc.h ****   * @note   Bit is write-protected. @ref LL_RTC_DisableWriteProtection function should be called be
1071:Drivers/STM32L0xx_HAL_Driver/Inc/stm32l0xx_ll_rtc.h ****   * @note   It can be written in initialization mode only (@ref LL_RTC_EnableInitMode function)
1072:Drivers/STM32L0xx_HAL_Driver/Inc/stm32l0xx_ll_rtc.h ****   * @note helper macro __LL_RTC_CONVERT_BIN2BCD is available to convert hour from binary to BCD for
1073:Drivers/STM32L0xx_HAL_Driver/Inc/stm32l0xx_ll_rtc.h ****   * @rmtoll TR           HT            LL_RTC_TIME_SetHour\n
1074:Drivers/STM32L0xx_HAL_Driver/Inc/stm32l0xx_ll_rtc.h ****   *         TR           HU            LL_RTC_TIME_SetHour
1075:Drivers/STM32L0xx_HAL_Driver/Inc/stm32l0xx_ll_rtc.h ****   * @param  RTCx RTC Instance
1076:Drivers/STM32L0xx_HAL_Driver/Inc/stm32l0xx_ll_rtc.h ****   * @param  Hours Value between Min_Data=0x01 and Max_Data=0x12 or between Min_Data=0x00 and Max_Da
1077:Drivers/STM32L0xx_HAL_Driver/Inc/stm32l0xx_ll_rtc.h ****   * @retval None
1078:Drivers/STM32L0xx_HAL_Driver/Inc/stm32l0xx_ll_rtc.h ****   */
1079:Drivers/STM32L0xx_HAL_Driver/Inc/stm32l0xx_ll_rtc.h **** __STATIC_INLINE void LL_RTC_TIME_SetHour(RTC_TypeDef *RTCx, uint32_t Hours)
1080:Drivers/STM32L0xx_HAL_Driver/Inc/stm32l0xx_ll_rtc.h **** {
1081:Drivers/STM32L0xx_HAL_Driver/Inc/stm32l0xx_ll_rtc.h ****   MODIFY_REG(RTCx->TR, (RTC_TR_HT | RTC_TR_HU),
1082:Drivers/STM32L0xx_HAL_Driver/Inc/stm32l0xx_ll_rtc.h ****              (((Hours & 0xF0U) << (RTC_TR_HT_Pos - 4U)) | ((Hours & 0x0FU) << RTC_TR_HU_Pos)));
1083:Drivers/STM32L0xx_HAL_Driver/Inc/stm32l0xx_ll_rtc.h **** }
1084:Drivers/STM32L0xx_HAL_Driver/Inc/stm32l0xx_ll_rtc.h **** 
1085:Drivers/STM32L0xx_HAL_Driver/Inc/stm32l0xx_ll_rtc.h **** /**
1086:Drivers/STM32L0xx_HAL_Driver/Inc/stm32l0xx_ll_rtc.h ****   * @brief  Get Hours in BCD format
1087:Drivers/STM32L0xx_HAL_Driver/Inc/stm32l0xx_ll_rtc.h ****   * @note if shadow mode is disabled (BYPSHAD=0), need to check if RSF flag is set
1088:Drivers/STM32L0xx_HAL_Driver/Inc/stm32l0xx_ll_rtc.h ****   *       before reading this bit
1089:Drivers/STM32L0xx_HAL_Driver/Inc/stm32l0xx_ll_rtc.h ****   * @note Read either RTC_SSR or RTC_TR locks the values in the higher-order calendar
1090:Drivers/STM32L0xx_HAL_Driver/Inc/stm32l0xx_ll_rtc.h ****   *       shadow registers until RTC_DR is read (LL_RTC_ReadReg(RTC, DR)).
1091:Drivers/STM32L0xx_HAL_Driver/Inc/stm32l0xx_ll_rtc.h ****   * @note helper macro __LL_RTC_CONVERT_BCD2BIN is available to convert hour from BCD to
1092:Drivers/STM32L0xx_HAL_Driver/Inc/stm32l0xx_ll_rtc.h ****   *       Binary format
1093:Drivers/STM32L0xx_HAL_Driver/Inc/stm32l0xx_ll_rtc.h ****   * @rmtoll TR           HT            LL_RTC_TIME_GetHour\n
1094:Drivers/STM32L0xx_HAL_Driver/Inc/stm32l0xx_ll_rtc.h ****   *         TR           HU            LL_RTC_TIME_GetHour
1095:Drivers/STM32L0xx_HAL_Driver/Inc/stm32l0xx_ll_rtc.h ****   * @param  RTCx RTC Instance
1096:Drivers/STM32L0xx_HAL_Driver/Inc/stm32l0xx_ll_rtc.h ****   * @retval Value between Min_Data=0x01 and Max_Data=0x12 or between Min_Data=0x00 and Max_Data=0x2
1097:Drivers/STM32L0xx_HAL_Driver/Inc/stm32l0xx_ll_rtc.h ****   */
1098:Drivers/STM32L0xx_HAL_Driver/Inc/stm32l0xx_ll_rtc.h **** __STATIC_INLINE uint32_t LL_RTC_TIME_GetHour(RTC_TypeDef *RTCx)
1099:Drivers/STM32L0xx_HAL_Driver/Inc/stm32l0xx_ll_rtc.h **** {
1100:Drivers/STM32L0xx_HAL_Driver/Inc/stm32l0xx_ll_rtc.h ****   return (uint32_t)((READ_BIT(RTCx->TR, (RTC_TR_HT | RTC_TR_HU))) >> RTC_TR_HU_Pos);
1101:Drivers/STM32L0xx_HAL_Driver/Inc/stm32l0xx_ll_rtc.h **** }
1102:Drivers/STM32L0xx_HAL_Driver/Inc/stm32l0xx_ll_rtc.h **** 
1103:Drivers/STM32L0xx_HAL_Driver/Inc/stm32l0xx_ll_rtc.h **** /**
ARM GAS  C:\Users\Nathan\AppData\Local\Temp\ccAQTZu2.s 			page 33


1104:Drivers/STM32L0xx_HAL_Driver/Inc/stm32l0xx_ll_rtc.h ****   * @brief  Set Minutes in BCD format
1105:Drivers/STM32L0xx_HAL_Driver/Inc/stm32l0xx_ll_rtc.h ****   * @note   Bit is write-protected. @ref LL_RTC_DisableWriteProtection function should be called be
1106:Drivers/STM32L0xx_HAL_Driver/Inc/stm32l0xx_ll_rtc.h ****   * @note   It can be written in initialization mode only (@ref LL_RTC_EnableInitMode function)
1107:Drivers/STM32L0xx_HAL_Driver/Inc/stm32l0xx_ll_rtc.h ****   * @note helper macro __LL_RTC_CONVERT_BIN2BCD is available to convert Minutes from binary to BCD 
1108:Drivers/STM32L0xx_HAL_Driver/Inc/stm32l0xx_ll_rtc.h ****   * @rmtoll TR           MNT           LL_RTC_TIME_SetMinute\n
1109:Drivers/STM32L0xx_HAL_Driver/Inc/stm32l0xx_ll_rtc.h ****   *         TR           MNU           LL_RTC_TIME_SetMinute
1110:Drivers/STM32L0xx_HAL_Driver/Inc/stm32l0xx_ll_rtc.h ****   * @param  RTCx RTC Instance
1111:Drivers/STM32L0xx_HAL_Driver/Inc/stm32l0xx_ll_rtc.h ****   * @param  Minutes Value between Min_Data=0x00 and Max_Data=0x59
1112:Drivers/STM32L0xx_HAL_Driver/Inc/stm32l0xx_ll_rtc.h ****   * @retval None
1113:Drivers/STM32L0xx_HAL_Driver/Inc/stm32l0xx_ll_rtc.h ****   */
1114:Drivers/STM32L0xx_HAL_Driver/Inc/stm32l0xx_ll_rtc.h **** __STATIC_INLINE void LL_RTC_TIME_SetMinute(RTC_TypeDef *RTCx, uint32_t Minutes)
1115:Drivers/STM32L0xx_HAL_Driver/Inc/stm32l0xx_ll_rtc.h **** {
1116:Drivers/STM32L0xx_HAL_Driver/Inc/stm32l0xx_ll_rtc.h ****   MODIFY_REG(RTCx->TR, (RTC_TR_MNT | RTC_TR_MNU),
1117:Drivers/STM32L0xx_HAL_Driver/Inc/stm32l0xx_ll_rtc.h ****              (((Minutes & 0xF0U) << (RTC_TR_MNT_Pos - 4U)) | ((Minutes & 0x0FU) << RTC_TR_MNU_Pos))
1118:Drivers/STM32L0xx_HAL_Driver/Inc/stm32l0xx_ll_rtc.h **** }
1119:Drivers/STM32L0xx_HAL_Driver/Inc/stm32l0xx_ll_rtc.h **** 
1120:Drivers/STM32L0xx_HAL_Driver/Inc/stm32l0xx_ll_rtc.h **** /**
1121:Drivers/STM32L0xx_HAL_Driver/Inc/stm32l0xx_ll_rtc.h ****   * @brief  Get Minutes in BCD format
1122:Drivers/STM32L0xx_HAL_Driver/Inc/stm32l0xx_ll_rtc.h ****   * @note if shadow mode is disabled (BYPSHAD=0), need to check if RSF flag is set
1123:Drivers/STM32L0xx_HAL_Driver/Inc/stm32l0xx_ll_rtc.h ****   *       before reading this bit
1124:Drivers/STM32L0xx_HAL_Driver/Inc/stm32l0xx_ll_rtc.h ****   * @note Read either RTC_SSR or RTC_TR locks the values in the higher-order calendar
1125:Drivers/STM32L0xx_HAL_Driver/Inc/stm32l0xx_ll_rtc.h ****   *       shadow registers until RTC_DR is read (LL_RTC_ReadReg(RTC, DR)).
1126:Drivers/STM32L0xx_HAL_Driver/Inc/stm32l0xx_ll_rtc.h ****   * @note helper macro __LL_RTC_CONVERT_BCD2BIN is available to convert minute from BCD
1127:Drivers/STM32L0xx_HAL_Driver/Inc/stm32l0xx_ll_rtc.h ****   *       to Binary format
1128:Drivers/STM32L0xx_HAL_Driver/Inc/stm32l0xx_ll_rtc.h ****   * @rmtoll TR           MNT           LL_RTC_TIME_GetMinute\n
1129:Drivers/STM32L0xx_HAL_Driver/Inc/stm32l0xx_ll_rtc.h ****   *         TR           MNU           LL_RTC_TIME_GetMinute
1130:Drivers/STM32L0xx_HAL_Driver/Inc/stm32l0xx_ll_rtc.h ****   * @param  RTCx RTC Instance
1131:Drivers/STM32L0xx_HAL_Driver/Inc/stm32l0xx_ll_rtc.h ****   * @retval Value between Min_Data=0x00 and Max_Data=0x59
1132:Drivers/STM32L0xx_HAL_Driver/Inc/stm32l0xx_ll_rtc.h ****   */
1133:Drivers/STM32L0xx_HAL_Driver/Inc/stm32l0xx_ll_rtc.h **** __STATIC_INLINE uint32_t LL_RTC_TIME_GetMinute(RTC_TypeDef *RTCx)
1134:Drivers/STM32L0xx_HAL_Driver/Inc/stm32l0xx_ll_rtc.h **** {
1135:Drivers/STM32L0xx_HAL_Driver/Inc/stm32l0xx_ll_rtc.h ****   return (uint32_t)(READ_BIT(RTCx->TR, (RTC_TR_MNT | RTC_TR_MNU)) >> RTC_TR_MNU_Pos);
1136:Drivers/STM32L0xx_HAL_Driver/Inc/stm32l0xx_ll_rtc.h **** }
1137:Drivers/STM32L0xx_HAL_Driver/Inc/stm32l0xx_ll_rtc.h **** 
1138:Drivers/STM32L0xx_HAL_Driver/Inc/stm32l0xx_ll_rtc.h **** /**
1139:Drivers/STM32L0xx_HAL_Driver/Inc/stm32l0xx_ll_rtc.h ****   * @brief  Set Seconds in BCD format
1140:Drivers/STM32L0xx_HAL_Driver/Inc/stm32l0xx_ll_rtc.h ****   * @note   Bit is write-protected. @ref LL_RTC_DisableWriteProtection function should be called be
1141:Drivers/STM32L0xx_HAL_Driver/Inc/stm32l0xx_ll_rtc.h ****   * @note   It can be written in initialization mode only (@ref LL_RTC_EnableInitMode function)
1142:Drivers/STM32L0xx_HAL_Driver/Inc/stm32l0xx_ll_rtc.h ****   * @note helper macro __LL_RTC_CONVERT_BIN2BCD is available to convert Seconds from binary to BCD 
1143:Drivers/STM32L0xx_HAL_Driver/Inc/stm32l0xx_ll_rtc.h ****   * @rmtoll TR           ST            LL_RTC_TIME_SetSecond\n
1144:Drivers/STM32L0xx_HAL_Driver/Inc/stm32l0xx_ll_rtc.h ****   *         TR           SU            LL_RTC_TIME_SetSecond
1145:Drivers/STM32L0xx_HAL_Driver/Inc/stm32l0xx_ll_rtc.h ****   * @param  RTCx RTC Instance
1146:Drivers/STM32L0xx_HAL_Driver/Inc/stm32l0xx_ll_rtc.h ****   * @param  Seconds Value between Min_Data=0x00 and Max_Data=0x59
1147:Drivers/STM32L0xx_HAL_Driver/Inc/stm32l0xx_ll_rtc.h ****   * @retval None
1148:Drivers/STM32L0xx_HAL_Driver/Inc/stm32l0xx_ll_rtc.h ****   */
1149:Drivers/STM32L0xx_HAL_Driver/Inc/stm32l0xx_ll_rtc.h **** __STATIC_INLINE void LL_RTC_TIME_SetSecond(RTC_TypeDef *RTCx, uint32_t Seconds)
1150:Drivers/STM32L0xx_HAL_Driver/Inc/stm32l0xx_ll_rtc.h **** {
1151:Drivers/STM32L0xx_HAL_Driver/Inc/stm32l0xx_ll_rtc.h ****   MODIFY_REG(RTCx->TR, (RTC_TR_ST | RTC_TR_SU),
1152:Drivers/STM32L0xx_HAL_Driver/Inc/stm32l0xx_ll_rtc.h ****              (((Seconds & 0xF0U) << (RTC_TR_ST_Pos - 4U)) | ((Seconds & 0x0FU) << RTC_TR_SU_Pos)));
1153:Drivers/STM32L0xx_HAL_Driver/Inc/stm32l0xx_ll_rtc.h **** }
1154:Drivers/STM32L0xx_HAL_Driver/Inc/stm32l0xx_ll_rtc.h **** 
1155:Drivers/STM32L0xx_HAL_Driver/Inc/stm32l0xx_ll_rtc.h **** /**
1156:Drivers/STM32L0xx_HAL_Driver/Inc/stm32l0xx_ll_rtc.h ****   * @brief  Get Seconds in BCD format
1157:Drivers/STM32L0xx_HAL_Driver/Inc/stm32l0xx_ll_rtc.h ****   * @note if shadow mode is disabled (BYPSHAD=0), need to check if RSF flag is set
1158:Drivers/STM32L0xx_HAL_Driver/Inc/stm32l0xx_ll_rtc.h ****   *       before reading this bit
1159:Drivers/STM32L0xx_HAL_Driver/Inc/stm32l0xx_ll_rtc.h ****   * @note Read either RTC_SSR or RTC_TR locks the values in the higher-order calendar
1160:Drivers/STM32L0xx_HAL_Driver/Inc/stm32l0xx_ll_rtc.h ****   *       shadow registers until RTC_DR is read (LL_RTC_ReadReg(RTC, DR)).
ARM GAS  C:\Users\Nathan\AppData\Local\Temp\ccAQTZu2.s 			page 34


1161:Drivers/STM32L0xx_HAL_Driver/Inc/stm32l0xx_ll_rtc.h ****   * @note helper macro __LL_RTC_CONVERT_BCD2BIN is available to convert Seconds from BCD
1162:Drivers/STM32L0xx_HAL_Driver/Inc/stm32l0xx_ll_rtc.h ****   *       to Binary format
1163:Drivers/STM32L0xx_HAL_Driver/Inc/stm32l0xx_ll_rtc.h ****   * @rmtoll TR           ST            LL_RTC_TIME_GetSecond\n
1164:Drivers/STM32L0xx_HAL_Driver/Inc/stm32l0xx_ll_rtc.h ****   *         TR           SU            LL_RTC_TIME_GetSecond
1165:Drivers/STM32L0xx_HAL_Driver/Inc/stm32l0xx_ll_rtc.h ****   * @param  RTCx RTC Instance
1166:Drivers/STM32L0xx_HAL_Driver/Inc/stm32l0xx_ll_rtc.h ****   * @retval Value between Min_Data=0x00 and Max_Data=0x59
1167:Drivers/STM32L0xx_HAL_Driver/Inc/stm32l0xx_ll_rtc.h ****   */
1168:Drivers/STM32L0xx_HAL_Driver/Inc/stm32l0xx_ll_rtc.h **** __STATIC_INLINE uint32_t LL_RTC_TIME_GetSecond(RTC_TypeDef *RTCx)
1169:Drivers/STM32L0xx_HAL_Driver/Inc/stm32l0xx_ll_rtc.h **** {
1170:Drivers/STM32L0xx_HAL_Driver/Inc/stm32l0xx_ll_rtc.h ****   return (uint32_t)(READ_BIT(RTCx->TR, (RTC_TR_ST | RTC_TR_SU)) >> RTC_TR_SU_Pos);
1171:Drivers/STM32L0xx_HAL_Driver/Inc/stm32l0xx_ll_rtc.h **** }
1172:Drivers/STM32L0xx_HAL_Driver/Inc/stm32l0xx_ll_rtc.h **** 
1173:Drivers/STM32L0xx_HAL_Driver/Inc/stm32l0xx_ll_rtc.h **** /**
1174:Drivers/STM32L0xx_HAL_Driver/Inc/stm32l0xx_ll_rtc.h ****   * @brief  Set time (hour, minute and second) in BCD format
1175:Drivers/STM32L0xx_HAL_Driver/Inc/stm32l0xx_ll_rtc.h ****   * @note   Bit is write-protected. @ref LL_RTC_DisableWriteProtection function should be called be
1176:Drivers/STM32L0xx_HAL_Driver/Inc/stm32l0xx_ll_rtc.h ****   * @note   It can be written in initialization mode only (@ref LL_RTC_EnableInitMode function)
1177:Drivers/STM32L0xx_HAL_Driver/Inc/stm32l0xx_ll_rtc.h ****   * @note TimeFormat and Hours should follow the same format
1178:Drivers/STM32L0xx_HAL_Driver/Inc/stm32l0xx_ll_rtc.h ****   * @rmtoll TR           PM            LL_RTC_TIME_Config\n
1179:Drivers/STM32L0xx_HAL_Driver/Inc/stm32l0xx_ll_rtc.h ****   *         TR           HT            LL_RTC_TIME_Config\n
1180:Drivers/STM32L0xx_HAL_Driver/Inc/stm32l0xx_ll_rtc.h ****   *         TR           HU            LL_RTC_TIME_Config\n
1181:Drivers/STM32L0xx_HAL_Driver/Inc/stm32l0xx_ll_rtc.h ****   *         TR           MNT           LL_RTC_TIME_Config\n
1182:Drivers/STM32L0xx_HAL_Driver/Inc/stm32l0xx_ll_rtc.h ****   *         TR           MNU           LL_RTC_TIME_Config\n
1183:Drivers/STM32L0xx_HAL_Driver/Inc/stm32l0xx_ll_rtc.h ****   *         TR           ST            LL_RTC_TIME_Config\n
1184:Drivers/STM32L0xx_HAL_Driver/Inc/stm32l0xx_ll_rtc.h ****   *         TR           SU            LL_RTC_TIME_Config
1185:Drivers/STM32L0xx_HAL_Driver/Inc/stm32l0xx_ll_rtc.h ****   * @param  RTCx RTC Instance
1186:Drivers/STM32L0xx_HAL_Driver/Inc/stm32l0xx_ll_rtc.h ****   * @param  Format12_24 This parameter can be one of the following values:
1187:Drivers/STM32L0xx_HAL_Driver/Inc/stm32l0xx_ll_rtc.h ****   *         @arg @ref LL_RTC_TIME_FORMAT_AM_OR_24
1188:Drivers/STM32L0xx_HAL_Driver/Inc/stm32l0xx_ll_rtc.h ****   *         @arg @ref LL_RTC_TIME_FORMAT_PM
1189:Drivers/STM32L0xx_HAL_Driver/Inc/stm32l0xx_ll_rtc.h ****   * @param  Hours Value between Min_Data=0x01 and Max_Data=0x12 or between Min_Data=0x00 and Max_Da
1190:Drivers/STM32L0xx_HAL_Driver/Inc/stm32l0xx_ll_rtc.h ****   * @param  Minutes Value between Min_Data=0x00 and Max_Data=0x59
1191:Drivers/STM32L0xx_HAL_Driver/Inc/stm32l0xx_ll_rtc.h ****   * @param  Seconds Value between Min_Data=0x00 and Max_Data=0x59
1192:Drivers/STM32L0xx_HAL_Driver/Inc/stm32l0xx_ll_rtc.h ****   * @retval None
1193:Drivers/STM32L0xx_HAL_Driver/Inc/stm32l0xx_ll_rtc.h ****   */
1194:Drivers/STM32L0xx_HAL_Driver/Inc/stm32l0xx_ll_rtc.h **** __STATIC_INLINE void LL_RTC_TIME_Config(RTC_TypeDef *RTCx, uint32_t Format12_24, uint32_t Hours, ui
1195:Drivers/STM32L0xx_HAL_Driver/Inc/stm32l0xx_ll_rtc.h **** {
1196:Drivers/STM32L0xx_HAL_Driver/Inc/stm32l0xx_ll_rtc.h ****   uint32_t temp;
1197:Drivers/STM32L0xx_HAL_Driver/Inc/stm32l0xx_ll_rtc.h **** 
1198:Drivers/STM32L0xx_HAL_Driver/Inc/stm32l0xx_ll_rtc.h ****   temp = Format12_24                                                                            | \
1199:Drivers/STM32L0xx_HAL_Driver/Inc/stm32l0xx_ll_rtc.h ****          (((Hours   & 0xF0U) << (RTC_TR_HT_Pos  - 4U)) | ((Hours & 0x0FU) << RTC_TR_HU_Pos))    | \
1200:Drivers/STM32L0xx_HAL_Driver/Inc/stm32l0xx_ll_rtc.h ****          (((Minutes & 0xF0U) << (RTC_TR_MNT_Pos - 4U)) | ((Minutes & 0x0FU) << RTC_TR_MNU_Pos)) | \
1201:Drivers/STM32L0xx_HAL_Driver/Inc/stm32l0xx_ll_rtc.h ****          (((Seconds & 0xF0U) << (RTC_TR_ST_Pos  - 4U)) | ((Seconds & 0x0FU) << RTC_TR_SU_Pos));
1202:Drivers/STM32L0xx_HAL_Driver/Inc/stm32l0xx_ll_rtc.h ****   MODIFY_REG(RTCx->TR, (RTC_TR_PM | RTC_TR_HT | RTC_TR_HU | RTC_TR_MNT | RTC_TR_MNU | RTC_TR_ST | R
1203:Drivers/STM32L0xx_HAL_Driver/Inc/stm32l0xx_ll_rtc.h **** }
1204:Drivers/STM32L0xx_HAL_Driver/Inc/stm32l0xx_ll_rtc.h **** 
1205:Drivers/STM32L0xx_HAL_Driver/Inc/stm32l0xx_ll_rtc.h **** /**
1206:Drivers/STM32L0xx_HAL_Driver/Inc/stm32l0xx_ll_rtc.h ****   * @brief  Get time (hour, minute and second) in BCD format
1207:Drivers/STM32L0xx_HAL_Driver/Inc/stm32l0xx_ll_rtc.h ****   * @note if shadow mode is disabled (BYPSHAD=0), need to check if RSF flag is set
1208:Drivers/STM32L0xx_HAL_Driver/Inc/stm32l0xx_ll_rtc.h ****   *       before reading this bit
1209:Drivers/STM32L0xx_HAL_Driver/Inc/stm32l0xx_ll_rtc.h ****   * @note Read either RTC_SSR or RTC_TR locks the values in the higher-order calendar
1210:Drivers/STM32L0xx_HAL_Driver/Inc/stm32l0xx_ll_rtc.h ****   *       shadow registers until RTC_DR is read (LL_RTC_ReadReg(RTC, DR)).
1211:Drivers/STM32L0xx_HAL_Driver/Inc/stm32l0xx_ll_rtc.h ****   * @note helper macros __LL_RTC_GET_HOUR, __LL_RTC_GET_MINUTE and __LL_RTC_GET_SECOND
1212:Drivers/STM32L0xx_HAL_Driver/Inc/stm32l0xx_ll_rtc.h ****   *       are available to get independently each parameter.
1213:Drivers/STM32L0xx_HAL_Driver/Inc/stm32l0xx_ll_rtc.h ****   * @rmtoll TR           HT            LL_RTC_TIME_Get\n
1214:Drivers/STM32L0xx_HAL_Driver/Inc/stm32l0xx_ll_rtc.h ****   *         TR           HU            LL_RTC_TIME_Get\n
1215:Drivers/STM32L0xx_HAL_Driver/Inc/stm32l0xx_ll_rtc.h ****   *         TR           MNT           LL_RTC_TIME_Get\n
1216:Drivers/STM32L0xx_HAL_Driver/Inc/stm32l0xx_ll_rtc.h ****   *         TR           MNU           LL_RTC_TIME_Get\n
1217:Drivers/STM32L0xx_HAL_Driver/Inc/stm32l0xx_ll_rtc.h ****   *         TR           ST            LL_RTC_TIME_Get\n
ARM GAS  C:\Users\Nathan\AppData\Local\Temp\ccAQTZu2.s 			page 35


1218:Drivers/STM32L0xx_HAL_Driver/Inc/stm32l0xx_ll_rtc.h ****   *         TR           SU            LL_RTC_TIME_Get
1219:Drivers/STM32L0xx_HAL_Driver/Inc/stm32l0xx_ll_rtc.h ****   * @param  RTCx RTC Instance
1220:Drivers/STM32L0xx_HAL_Driver/Inc/stm32l0xx_ll_rtc.h ****   * @retval Combination of hours, minutes and seconds (Format: 0x00HHMMSS).
1221:Drivers/STM32L0xx_HAL_Driver/Inc/stm32l0xx_ll_rtc.h ****   */
1222:Drivers/STM32L0xx_HAL_Driver/Inc/stm32l0xx_ll_rtc.h **** __STATIC_INLINE uint32_t LL_RTC_TIME_Get(RTC_TypeDef *RTCx)
1223:Drivers/STM32L0xx_HAL_Driver/Inc/stm32l0xx_ll_rtc.h **** {
1224:Drivers/STM32L0xx_HAL_Driver/Inc/stm32l0xx_ll_rtc.h ****   return (uint32_t)(READ_BIT(RTCx->TR, (RTC_TR_HT | RTC_TR_HU | RTC_TR_MNT | RTC_TR_MNU | RTC_TR_ST
1225:Drivers/STM32L0xx_HAL_Driver/Inc/stm32l0xx_ll_rtc.h **** }
1226:Drivers/STM32L0xx_HAL_Driver/Inc/stm32l0xx_ll_rtc.h **** 
1227:Drivers/STM32L0xx_HAL_Driver/Inc/stm32l0xx_ll_rtc.h **** /**
1228:Drivers/STM32L0xx_HAL_Driver/Inc/stm32l0xx_ll_rtc.h ****   * @brief  Memorize whether the daylight saving time change has been performed
1229:Drivers/STM32L0xx_HAL_Driver/Inc/stm32l0xx_ll_rtc.h ****   * @note   Bit is write-protected. @ref LL_RTC_DisableWriteProtection function should be called be
1230:Drivers/STM32L0xx_HAL_Driver/Inc/stm32l0xx_ll_rtc.h ****   * @rmtoll CR           BKP           LL_RTC_TIME_EnableDayLightStore
1231:Drivers/STM32L0xx_HAL_Driver/Inc/stm32l0xx_ll_rtc.h ****   * @param  RTCx RTC Instance
1232:Drivers/STM32L0xx_HAL_Driver/Inc/stm32l0xx_ll_rtc.h ****   * @retval None
1233:Drivers/STM32L0xx_HAL_Driver/Inc/stm32l0xx_ll_rtc.h ****   */
1234:Drivers/STM32L0xx_HAL_Driver/Inc/stm32l0xx_ll_rtc.h **** __STATIC_INLINE void LL_RTC_TIME_EnableDayLightStore(RTC_TypeDef *RTCx)
1235:Drivers/STM32L0xx_HAL_Driver/Inc/stm32l0xx_ll_rtc.h **** {
1236:Drivers/STM32L0xx_HAL_Driver/Inc/stm32l0xx_ll_rtc.h ****   SET_BIT(RTCx->CR, RTC_CR_BKP);
1237:Drivers/STM32L0xx_HAL_Driver/Inc/stm32l0xx_ll_rtc.h **** }
1238:Drivers/STM32L0xx_HAL_Driver/Inc/stm32l0xx_ll_rtc.h **** 
1239:Drivers/STM32L0xx_HAL_Driver/Inc/stm32l0xx_ll_rtc.h **** /**
1240:Drivers/STM32L0xx_HAL_Driver/Inc/stm32l0xx_ll_rtc.h ****   * @brief  Disable memorization whether the daylight saving time change has been performed.
1241:Drivers/STM32L0xx_HAL_Driver/Inc/stm32l0xx_ll_rtc.h ****   * @note   Bit is write-protected. @ref LL_RTC_DisableWriteProtection function should be called be
1242:Drivers/STM32L0xx_HAL_Driver/Inc/stm32l0xx_ll_rtc.h ****   * @rmtoll CR           BKP           LL_RTC_TIME_DisableDayLightStore
1243:Drivers/STM32L0xx_HAL_Driver/Inc/stm32l0xx_ll_rtc.h ****   * @param  RTCx RTC Instance
1244:Drivers/STM32L0xx_HAL_Driver/Inc/stm32l0xx_ll_rtc.h ****   * @retval None
1245:Drivers/STM32L0xx_HAL_Driver/Inc/stm32l0xx_ll_rtc.h ****   */
1246:Drivers/STM32L0xx_HAL_Driver/Inc/stm32l0xx_ll_rtc.h **** __STATIC_INLINE void LL_RTC_TIME_DisableDayLightStore(RTC_TypeDef *RTCx)
1247:Drivers/STM32L0xx_HAL_Driver/Inc/stm32l0xx_ll_rtc.h **** {
1248:Drivers/STM32L0xx_HAL_Driver/Inc/stm32l0xx_ll_rtc.h ****   CLEAR_BIT(RTCx->CR, RTC_CR_BKP);
1249:Drivers/STM32L0xx_HAL_Driver/Inc/stm32l0xx_ll_rtc.h **** }
1250:Drivers/STM32L0xx_HAL_Driver/Inc/stm32l0xx_ll_rtc.h **** 
1251:Drivers/STM32L0xx_HAL_Driver/Inc/stm32l0xx_ll_rtc.h **** /**
1252:Drivers/STM32L0xx_HAL_Driver/Inc/stm32l0xx_ll_rtc.h ****   * @brief  Check if RTC Day Light Saving stored operation has been enabled or not
1253:Drivers/STM32L0xx_HAL_Driver/Inc/stm32l0xx_ll_rtc.h ****   * @rmtoll CR           BKP           LL_RTC_TIME_IsDayLightStoreEnabled
1254:Drivers/STM32L0xx_HAL_Driver/Inc/stm32l0xx_ll_rtc.h ****   * @param  RTCx RTC Instance
1255:Drivers/STM32L0xx_HAL_Driver/Inc/stm32l0xx_ll_rtc.h ****   * @retval State of bit (1 or 0).
1256:Drivers/STM32L0xx_HAL_Driver/Inc/stm32l0xx_ll_rtc.h ****   */
1257:Drivers/STM32L0xx_HAL_Driver/Inc/stm32l0xx_ll_rtc.h **** __STATIC_INLINE uint32_t LL_RTC_TIME_IsDayLightStoreEnabled(RTC_TypeDef *RTCx)
1258:Drivers/STM32L0xx_HAL_Driver/Inc/stm32l0xx_ll_rtc.h **** {
1259:Drivers/STM32L0xx_HAL_Driver/Inc/stm32l0xx_ll_rtc.h ****   return ((READ_BIT(RTCx->CR, RTC_CR_BKP) == (RTC_CR_BKP)) ? 1UL : 0UL);
1260:Drivers/STM32L0xx_HAL_Driver/Inc/stm32l0xx_ll_rtc.h **** }
1261:Drivers/STM32L0xx_HAL_Driver/Inc/stm32l0xx_ll_rtc.h **** 
1262:Drivers/STM32L0xx_HAL_Driver/Inc/stm32l0xx_ll_rtc.h **** /**
1263:Drivers/STM32L0xx_HAL_Driver/Inc/stm32l0xx_ll_rtc.h ****   * @brief  Subtract 1 hour (winter time change)
1264:Drivers/STM32L0xx_HAL_Driver/Inc/stm32l0xx_ll_rtc.h ****   * @note   Bit is write-protected. @ref LL_RTC_DisableWriteProtection function should be called be
1265:Drivers/STM32L0xx_HAL_Driver/Inc/stm32l0xx_ll_rtc.h ****   * @rmtoll CR           SUB1H         LL_RTC_TIME_DecHour
1266:Drivers/STM32L0xx_HAL_Driver/Inc/stm32l0xx_ll_rtc.h ****   * @param  RTCx RTC Instance
1267:Drivers/STM32L0xx_HAL_Driver/Inc/stm32l0xx_ll_rtc.h ****   * @retval None
1268:Drivers/STM32L0xx_HAL_Driver/Inc/stm32l0xx_ll_rtc.h ****   */
1269:Drivers/STM32L0xx_HAL_Driver/Inc/stm32l0xx_ll_rtc.h **** __STATIC_INLINE void LL_RTC_TIME_DecHour(RTC_TypeDef *RTCx)
1270:Drivers/STM32L0xx_HAL_Driver/Inc/stm32l0xx_ll_rtc.h **** {
1271:Drivers/STM32L0xx_HAL_Driver/Inc/stm32l0xx_ll_rtc.h ****   SET_BIT(RTCx->CR, RTC_CR_SUB1H);
1272:Drivers/STM32L0xx_HAL_Driver/Inc/stm32l0xx_ll_rtc.h **** }
1273:Drivers/STM32L0xx_HAL_Driver/Inc/stm32l0xx_ll_rtc.h **** 
1274:Drivers/STM32L0xx_HAL_Driver/Inc/stm32l0xx_ll_rtc.h **** /**
ARM GAS  C:\Users\Nathan\AppData\Local\Temp\ccAQTZu2.s 			page 36


1275:Drivers/STM32L0xx_HAL_Driver/Inc/stm32l0xx_ll_rtc.h ****   * @brief  Add 1 hour (summer time change)
1276:Drivers/STM32L0xx_HAL_Driver/Inc/stm32l0xx_ll_rtc.h ****   * @note   Bit is write-protected. @ref LL_RTC_DisableWriteProtection function should be called be
1277:Drivers/STM32L0xx_HAL_Driver/Inc/stm32l0xx_ll_rtc.h ****   * @rmtoll CR           ADD1H         LL_RTC_TIME_IncHour
1278:Drivers/STM32L0xx_HAL_Driver/Inc/stm32l0xx_ll_rtc.h ****   * @param  RTCx RTC Instance
1279:Drivers/STM32L0xx_HAL_Driver/Inc/stm32l0xx_ll_rtc.h ****   * @retval None
1280:Drivers/STM32L0xx_HAL_Driver/Inc/stm32l0xx_ll_rtc.h ****   */
1281:Drivers/STM32L0xx_HAL_Driver/Inc/stm32l0xx_ll_rtc.h **** __STATIC_INLINE void LL_RTC_TIME_IncHour(RTC_TypeDef *RTCx)
1282:Drivers/STM32L0xx_HAL_Driver/Inc/stm32l0xx_ll_rtc.h **** {
1283:Drivers/STM32L0xx_HAL_Driver/Inc/stm32l0xx_ll_rtc.h ****   SET_BIT(RTCx->CR, RTC_CR_ADD1H);
1284:Drivers/STM32L0xx_HAL_Driver/Inc/stm32l0xx_ll_rtc.h **** }
1285:Drivers/STM32L0xx_HAL_Driver/Inc/stm32l0xx_ll_rtc.h **** 
1286:Drivers/STM32L0xx_HAL_Driver/Inc/stm32l0xx_ll_rtc.h **** /**
1287:Drivers/STM32L0xx_HAL_Driver/Inc/stm32l0xx_ll_rtc.h ****   * @brief  Get subseconds value in the synchronous prescaler counter.
1288:Drivers/STM32L0xx_HAL_Driver/Inc/stm32l0xx_ll_rtc.h ****   * @note  You can use both SubSeconds value and SecondFraction (PREDIV_S through
1289:Drivers/STM32L0xx_HAL_Driver/Inc/stm32l0xx_ll_rtc.h ****   *        LL_RTC_GetSynchPrescaler function) terms returned to convert Calendar
1290:Drivers/STM32L0xx_HAL_Driver/Inc/stm32l0xx_ll_rtc.h ****   *        SubSeconds value in second fraction ratio with time unit following
1291:Drivers/STM32L0xx_HAL_Driver/Inc/stm32l0xx_ll_rtc.h ****   *        generic formula:
1292:Drivers/STM32L0xx_HAL_Driver/Inc/stm32l0xx_ll_rtc.h ****   *          ==> Seconds fraction ratio * time_unit =
1293:Drivers/STM32L0xx_HAL_Driver/Inc/stm32l0xx_ll_rtc.h ****   *                 [(SecondFraction-SubSeconds)/(SecondFraction+1)] * time_unit
1294:Drivers/STM32L0xx_HAL_Driver/Inc/stm32l0xx_ll_rtc.h ****   *        This conversion can be performed only if no shift operation is pending
1295:Drivers/STM32L0xx_HAL_Driver/Inc/stm32l0xx_ll_rtc.h ****   *        (ie. SHFP=0) when PREDIV_S >= SS.
1296:Drivers/STM32L0xx_HAL_Driver/Inc/stm32l0xx_ll_rtc.h ****   * @rmtoll SSR          SS            LL_RTC_TIME_GetSubSecond
1297:Drivers/STM32L0xx_HAL_Driver/Inc/stm32l0xx_ll_rtc.h ****   * @param  RTCx RTC Instance
1298:Drivers/STM32L0xx_HAL_Driver/Inc/stm32l0xx_ll_rtc.h ****   * @retval Subseconds value (number between 0 and 65535)
1299:Drivers/STM32L0xx_HAL_Driver/Inc/stm32l0xx_ll_rtc.h ****   */
1300:Drivers/STM32L0xx_HAL_Driver/Inc/stm32l0xx_ll_rtc.h **** __STATIC_INLINE uint32_t LL_RTC_TIME_GetSubSecond(RTC_TypeDef *RTCx)
1301:Drivers/STM32L0xx_HAL_Driver/Inc/stm32l0xx_ll_rtc.h **** {
1302:Drivers/STM32L0xx_HAL_Driver/Inc/stm32l0xx_ll_rtc.h ****   return (uint32_t)(READ_BIT(RTCx->SSR, RTC_SSR_SS));
1303:Drivers/STM32L0xx_HAL_Driver/Inc/stm32l0xx_ll_rtc.h **** }
1304:Drivers/STM32L0xx_HAL_Driver/Inc/stm32l0xx_ll_rtc.h **** 
1305:Drivers/STM32L0xx_HAL_Driver/Inc/stm32l0xx_ll_rtc.h **** /**
1306:Drivers/STM32L0xx_HAL_Driver/Inc/stm32l0xx_ll_rtc.h ****   * @brief  Synchronize to a remote clock with a high degree of precision.
1307:Drivers/STM32L0xx_HAL_Driver/Inc/stm32l0xx_ll_rtc.h ****   * @note   This operation effectively subtracts from (delays) or advance the clock of a fraction o
1308:Drivers/STM32L0xx_HAL_Driver/Inc/stm32l0xx_ll_rtc.h ****   * @note   Bit is write-protected. @ref LL_RTC_DisableWriteProtection function should be called be
1309:Drivers/STM32L0xx_HAL_Driver/Inc/stm32l0xx_ll_rtc.h ****   * @note   When REFCKON is set, firmware must not write to Shift control register.
1310:Drivers/STM32L0xx_HAL_Driver/Inc/stm32l0xx_ll_rtc.h ****   * @rmtoll SHIFTR       ADD1S         LL_RTC_TIME_Synchronize\n
1311:Drivers/STM32L0xx_HAL_Driver/Inc/stm32l0xx_ll_rtc.h ****   *         SHIFTR       SUBFS         LL_RTC_TIME_Synchronize
1312:Drivers/STM32L0xx_HAL_Driver/Inc/stm32l0xx_ll_rtc.h ****   * @param  RTCx RTC Instance
1313:Drivers/STM32L0xx_HAL_Driver/Inc/stm32l0xx_ll_rtc.h ****   * @param  ShiftSecond This parameter can be one of the following values:
1314:Drivers/STM32L0xx_HAL_Driver/Inc/stm32l0xx_ll_rtc.h ****   *         @arg @ref LL_RTC_SHIFT_SECOND_DELAY
1315:Drivers/STM32L0xx_HAL_Driver/Inc/stm32l0xx_ll_rtc.h ****   *         @arg @ref LL_RTC_SHIFT_SECOND_ADVANCE
1316:Drivers/STM32L0xx_HAL_Driver/Inc/stm32l0xx_ll_rtc.h ****   * @param  Fraction Number of Seconds Fractions (any value from 0 to 0x7FFF)
1317:Drivers/STM32L0xx_HAL_Driver/Inc/stm32l0xx_ll_rtc.h ****   * @retval None
1318:Drivers/STM32L0xx_HAL_Driver/Inc/stm32l0xx_ll_rtc.h ****   */
1319:Drivers/STM32L0xx_HAL_Driver/Inc/stm32l0xx_ll_rtc.h **** __STATIC_INLINE void LL_RTC_TIME_Synchronize(RTC_TypeDef *RTCx, uint32_t ShiftSecond, uint32_t Frac
1320:Drivers/STM32L0xx_HAL_Driver/Inc/stm32l0xx_ll_rtc.h **** {
1321:Drivers/STM32L0xx_HAL_Driver/Inc/stm32l0xx_ll_rtc.h ****   WRITE_REG(RTCx->SHIFTR, ShiftSecond | Fraction);
1322:Drivers/STM32L0xx_HAL_Driver/Inc/stm32l0xx_ll_rtc.h **** }
1323:Drivers/STM32L0xx_HAL_Driver/Inc/stm32l0xx_ll_rtc.h **** 
1324:Drivers/STM32L0xx_HAL_Driver/Inc/stm32l0xx_ll_rtc.h **** /**
1325:Drivers/STM32L0xx_HAL_Driver/Inc/stm32l0xx_ll_rtc.h ****   * @}
1326:Drivers/STM32L0xx_HAL_Driver/Inc/stm32l0xx_ll_rtc.h ****   */
1327:Drivers/STM32L0xx_HAL_Driver/Inc/stm32l0xx_ll_rtc.h **** 
1328:Drivers/STM32L0xx_HAL_Driver/Inc/stm32l0xx_ll_rtc.h **** /** @defgroup RTC_LL_EF_Date Date
1329:Drivers/STM32L0xx_HAL_Driver/Inc/stm32l0xx_ll_rtc.h ****   * @{
1330:Drivers/STM32L0xx_HAL_Driver/Inc/stm32l0xx_ll_rtc.h ****   */
1331:Drivers/STM32L0xx_HAL_Driver/Inc/stm32l0xx_ll_rtc.h **** 
ARM GAS  C:\Users\Nathan\AppData\Local\Temp\ccAQTZu2.s 			page 37


1332:Drivers/STM32L0xx_HAL_Driver/Inc/stm32l0xx_ll_rtc.h **** /**
1333:Drivers/STM32L0xx_HAL_Driver/Inc/stm32l0xx_ll_rtc.h ****   * @brief  Set Year in BCD format
1334:Drivers/STM32L0xx_HAL_Driver/Inc/stm32l0xx_ll_rtc.h ****   * @note helper macro __LL_RTC_CONVERT_BIN2BCD is available to convert Year from binary to BCD for
1335:Drivers/STM32L0xx_HAL_Driver/Inc/stm32l0xx_ll_rtc.h ****   * @rmtoll DR           YT            LL_RTC_DATE_SetYear\n
1336:Drivers/STM32L0xx_HAL_Driver/Inc/stm32l0xx_ll_rtc.h ****   *         DR           YU            LL_RTC_DATE_SetYear
1337:Drivers/STM32L0xx_HAL_Driver/Inc/stm32l0xx_ll_rtc.h ****   * @param  RTCx RTC Instance
1338:Drivers/STM32L0xx_HAL_Driver/Inc/stm32l0xx_ll_rtc.h ****   * @param  Year Value between Min_Data=0x00 and Max_Data=0x99
1339:Drivers/STM32L0xx_HAL_Driver/Inc/stm32l0xx_ll_rtc.h ****   * @retval None
1340:Drivers/STM32L0xx_HAL_Driver/Inc/stm32l0xx_ll_rtc.h ****   */
1341:Drivers/STM32L0xx_HAL_Driver/Inc/stm32l0xx_ll_rtc.h **** __STATIC_INLINE void LL_RTC_DATE_SetYear(RTC_TypeDef *RTCx, uint32_t Year)
1342:Drivers/STM32L0xx_HAL_Driver/Inc/stm32l0xx_ll_rtc.h **** {
1343:Drivers/STM32L0xx_HAL_Driver/Inc/stm32l0xx_ll_rtc.h ****   MODIFY_REG(RTCx->DR, (RTC_DR_YT | RTC_DR_YU),
1344:Drivers/STM32L0xx_HAL_Driver/Inc/stm32l0xx_ll_rtc.h ****              (((Year & 0xF0U) << (RTC_DR_YT_Pos - 4U)) | ((Year & 0x0FU) << RTC_DR_YU_Pos)));
1345:Drivers/STM32L0xx_HAL_Driver/Inc/stm32l0xx_ll_rtc.h **** }
1346:Drivers/STM32L0xx_HAL_Driver/Inc/stm32l0xx_ll_rtc.h **** 
1347:Drivers/STM32L0xx_HAL_Driver/Inc/stm32l0xx_ll_rtc.h **** /**
1348:Drivers/STM32L0xx_HAL_Driver/Inc/stm32l0xx_ll_rtc.h ****   * @brief  Get Year in BCD format
1349:Drivers/STM32L0xx_HAL_Driver/Inc/stm32l0xx_ll_rtc.h ****   * @note if shadow mode is disabled (BYPSHAD=0), need to check if RSF flag is set
1350:Drivers/STM32L0xx_HAL_Driver/Inc/stm32l0xx_ll_rtc.h ****   *       before reading this bit
1351:Drivers/STM32L0xx_HAL_Driver/Inc/stm32l0xx_ll_rtc.h ****   * @note helper macro __LL_RTC_CONVERT_BCD2BIN is available to convert Year from BCD to Binary for
1352:Drivers/STM32L0xx_HAL_Driver/Inc/stm32l0xx_ll_rtc.h ****   * @rmtoll DR           YT            LL_RTC_DATE_GetYear\n
1353:Drivers/STM32L0xx_HAL_Driver/Inc/stm32l0xx_ll_rtc.h ****   *         DR           YU            LL_RTC_DATE_GetYear
1354:Drivers/STM32L0xx_HAL_Driver/Inc/stm32l0xx_ll_rtc.h ****   * @param  RTCx RTC Instance
1355:Drivers/STM32L0xx_HAL_Driver/Inc/stm32l0xx_ll_rtc.h ****   * @retval Value between Min_Data=0x00 and Max_Data=0x99
1356:Drivers/STM32L0xx_HAL_Driver/Inc/stm32l0xx_ll_rtc.h ****   */
1357:Drivers/STM32L0xx_HAL_Driver/Inc/stm32l0xx_ll_rtc.h **** __STATIC_INLINE uint32_t LL_RTC_DATE_GetYear(RTC_TypeDef *RTCx)
1358:Drivers/STM32L0xx_HAL_Driver/Inc/stm32l0xx_ll_rtc.h **** {
1359:Drivers/STM32L0xx_HAL_Driver/Inc/stm32l0xx_ll_rtc.h ****   return (uint32_t)((READ_BIT(RTCx->DR, (RTC_DR_YT | RTC_DR_YU))) >> RTC_DR_YU_Pos);
1360:Drivers/STM32L0xx_HAL_Driver/Inc/stm32l0xx_ll_rtc.h **** }
1361:Drivers/STM32L0xx_HAL_Driver/Inc/stm32l0xx_ll_rtc.h **** 
1362:Drivers/STM32L0xx_HAL_Driver/Inc/stm32l0xx_ll_rtc.h **** /**
1363:Drivers/STM32L0xx_HAL_Driver/Inc/stm32l0xx_ll_rtc.h ****   * @brief  Set Week day
1364:Drivers/STM32L0xx_HAL_Driver/Inc/stm32l0xx_ll_rtc.h ****   * @rmtoll DR           WDU           LL_RTC_DATE_SetWeekDay
1365:Drivers/STM32L0xx_HAL_Driver/Inc/stm32l0xx_ll_rtc.h ****   * @param  RTCx RTC Instance
1366:Drivers/STM32L0xx_HAL_Driver/Inc/stm32l0xx_ll_rtc.h ****   * @param  WeekDay This parameter can be one of the following values:
1367:Drivers/STM32L0xx_HAL_Driver/Inc/stm32l0xx_ll_rtc.h ****   *         @arg @ref LL_RTC_WEEKDAY_MONDAY
1368:Drivers/STM32L0xx_HAL_Driver/Inc/stm32l0xx_ll_rtc.h ****   *         @arg @ref LL_RTC_WEEKDAY_TUESDAY
1369:Drivers/STM32L0xx_HAL_Driver/Inc/stm32l0xx_ll_rtc.h ****   *         @arg @ref LL_RTC_WEEKDAY_WEDNESDAY
1370:Drivers/STM32L0xx_HAL_Driver/Inc/stm32l0xx_ll_rtc.h ****   *         @arg @ref LL_RTC_WEEKDAY_THURSDAY
1371:Drivers/STM32L0xx_HAL_Driver/Inc/stm32l0xx_ll_rtc.h ****   *         @arg @ref LL_RTC_WEEKDAY_FRIDAY
1372:Drivers/STM32L0xx_HAL_Driver/Inc/stm32l0xx_ll_rtc.h ****   *         @arg @ref LL_RTC_WEEKDAY_SATURDAY
1373:Drivers/STM32L0xx_HAL_Driver/Inc/stm32l0xx_ll_rtc.h ****   *         @arg @ref LL_RTC_WEEKDAY_SUNDAY
1374:Drivers/STM32L0xx_HAL_Driver/Inc/stm32l0xx_ll_rtc.h ****   * @retval None
1375:Drivers/STM32L0xx_HAL_Driver/Inc/stm32l0xx_ll_rtc.h ****   */
1376:Drivers/STM32L0xx_HAL_Driver/Inc/stm32l0xx_ll_rtc.h **** __STATIC_INLINE void LL_RTC_DATE_SetWeekDay(RTC_TypeDef *RTCx, uint32_t WeekDay)
1377:Drivers/STM32L0xx_HAL_Driver/Inc/stm32l0xx_ll_rtc.h **** {
1378:Drivers/STM32L0xx_HAL_Driver/Inc/stm32l0xx_ll_rtc.h ****   MODIFY_REG(RTCx->DR, RTC_DR_WDU, WeekDay << RTC_DR_WDU_Pos);
1379:Drivers/STM32L0xx_HAL_Driver/Inc/stm32l0xx_ll_rtc.h **** }
1380:Drivers/STM32L0xx_HAL_Driver/Inc/stm32l0xx_ll_rtc.h **** 
1381:Drivers/STM32L0xx_HAL_Driver/Inc/stm32l0xx_ll_rtc.h **** /**
1382:Drivers/STM32L0xx_HAL_Driver/Inc/stm32l0xx_ll_rtc.h ****   * @brief  Get Week day
1383:Drivers/STM32L0xx_HAL_Driver/Inc/stm32l0xx_ll_rtc.h ****   * @note if shadow mode is disabled (BYPSHAD=0), need to check if RSF flag is set
1384:Drivers/STM32L0xx_HAL_Driver/Inc/stm32l0xx_ll_rtc.h ****   *       before reading this bit
1385:Drivers/STM32L0xx_HAL_Driver/Inc/stm32l0xx_ll_rtc.h ****   * @rmtoll DR           WDU           LL_RTC_DATE_GetWeekDay
1386:Drivers/STM32L0xx_HAL_Driver/Inc/stm32l0xx_ll_rtc.h ****   * @param  RTCx RTC Instance
1387:Drivers/STM32L0xx_HAL_Driver/Inc/stm32l0xx_ll_rtc.h ****   * @retval Returned value can be one of the following values:
1388:Drivers/STM32L0xx_HAL_Driver/Inc/stm32l0xx_ll_rtc.h ****   *         @arg @ref LL_RTC_WEEKDAY_MONDAY
ARM GAS  C:\Users\Nathan\AppData\Local\Temp\ccAQTZu2.s 			page 38


1389:Drivers/STM32L0xx_HAL_Driver/Inc/stm32l0xx_ll_rtc.h ****   *         @arg @ref LL_RTC_WEEKDAY_TUESDAY
1390:Drivers/STM32L0xx_HAL_Driver/Inc/stm32l0xx_ll_rtc.h ****   *         @arg @ref LL_RTC_WEEKDAY_WEDNESDAY
1391:Drivers/STM32L0xx_HAL_Driver/Inc/stm32l0xx_ll_rtc.h ****   *         @arg @ref LL_RTC_WEEKDAY_THURSDAY
1392:Drivers/STM32L0xx_HAL_Driver/Inc/stm32l0xx_ll_rtc.h ****   *         @arg @ref LL_RTC_WEEKDAY_FRIDAY
1393:Drivers/STM32L0xx_HAL_Driver/Inc/stm32l0xx_ll_rtc.h ****   *         @arg @ref LL_RTC_WEEKDAY_SATURDAY
1394:Drivers/STM32L0xx_HAL_Driver/Inc/stm32l0xx_ll_rtc.h ****   *         @arg @ref LL_RTC_WEEKDAY_SUNDAY
1395:Drivers/STM32L0xx_HAL_Driver/Inc/stm32l0xx_ll_rtc.h ****   */
1396:Drivers/STM32L0xx_HAL_Driver/Inc/stm32l0xx_ll_rtc.h **** __STATIC_INLINE uint32_t LL_RTC_DATE_GetWeekDay(RTC_TypeDef *RTCx)
1397:Drivers/STM32L0xx_HAL_Driver/Inc/stm32l0xx_ll_rtc.h **** {
1398:Drivers/STM32L0xx_HAL_Driver/Inc/stm32l0xx_ll_rtc.h ****   return (uint32_t)(READ_BIT(RTCx->DR, RTC_DR_WDU) >> RTC_DR_WDU_Pos);
1399:Drivers/STM32L0xx_HAL_Driver/Inc/stm32l0xx_ll_rtc.h **** }
1400:Drivers/STM32L0xx_HAL_Driver/Inc/stm32l0xx_ll_rtc.h **** 
1401:Drivers/STM32L0xx_HAL_Driver/Inc/stm32l0xx_ll_rtc.h **** /**
1402:Drivers/STM32L0xx_HAL_Driver/Inc/stm32l0xx_ll_rtc.h ****   * @brief  Set Month in BCD format
1403:Drivers/STM32L0xx_HAL_Driver/Inc/stm32l0xx_ll_rtc.h ****   * @note helper macro __LL_RTC_CONVERT_BIN2BCD is available to convert Month from binary to BCD fo
1404:Drivers/STM32L0xx_HAL_Driver/Inc/stm32l0xx_ll_rtc.h ****   * @rmtoll DR           MT            LL_RTC_DATE_SetMonth\n
1405:Drivers/STM32L0xx_HAL_Driver/Inc/stm32l0xx_ll_rtc.h ****   *         DR           MU            LL_RTC_DATE_SetMonth
1406:Drivers/STM32L0xx_HAL_Driver/Inc/stm32l0xx_ll_rtc.h ****   * @param  RTCx RTC Instance
1407:Drivers/STM32L0xx_HAL_Driver/Inc/stm32l0xx_ll_rtc.h ****   * @param  Month This parameter can be one of the following values:
1408:Drivers/STM32L0xx_HAL_Driver/Inc/stm32l0xx_ll_rtc.h ****   *         @arg @ref LL_RTC_MONTH_JANUARY
1409:Drivers/STM32L0xx_HAL_Driver/Inc/stm32l0xx_ll_rtc.h ****   *         @arg @ref LL_RTC_MONTH_FEBRUARY
1410:Drivers/STM32L0xx_HAL_Driver/Inc/stm32l0xx_ll_rtc.h ****   *         @arg @ref LL_RTC_MONTH_MARCH
1411:Drivers/STM32L0xx_HAL_Driver/Inc/stm32l0xx_ll_rtc.h ****   *         @arg @ref LL_RTC_MONTH_APRIL
1412:Drivers/STM32L0xx_HAL_Driver/Inc/stm32l0xx_ll_rtc.h ****   *         @arg @ref LL_RTC_MONTH_MAY
1413:Drivers/STM32L0xx_HAL_Driver/Inc/stm32l0xx_ll_rtc.h ****   *         @arg @ref LL_RTC_MONTH_JUNE
1414:Drivers/STM32L0xx_HAL_Driver/Inc/stm32l0xx_ll_rtc.h ****   *         @arg @ref LL_RTC_MONTH_JULY
1415:Drivers/STM32L0xx_HAL_Driver/Inc/stm32l0xx_ll_rtc.h ****   *         @arg @ref LL_RTC_MONTH_AUGUST
1416:Drivers/STM32L0xx_HAL_Driver/Inc/stm32l0xx_ll_rtc.h ****   *         @arg @ref LL_RTC_MONTH_SEPTEMBER
1417:Drivers/STM32L0xx_HAL_Driver/Inc/stm32l0xx_ll_rtc.h ****   *         @arg @ref LL_RTC_MONTH_OCTOBER
1418:Drivers/STM32L0xx_HAL_Driver/Inc/stm32l0xx_ll_rtc.h ****   *         @arg @ref LL_RTC_MONTH_NOVEMBER
1419:Drivers/STM32L0xx_HAL_Driver/Inc/stm32l0xx_ll_rtc.h ****   *         @arg @ref LL_RTC_MONTH_DECEMBER
1420:Drivers/STM32L0xx_HAL_Driver/Inc/stm32l0xx_ll_rtc.h ****   * @retval None
1421:Drivers/STM32L0xx_HAL_Driver/Inc/stm32l0xx_ll_rtc.h ****   */
1422:Drivers/STM32L0xx_HAL_Driver/Inc/stm32l0xx_ll_rtc.h **** __STATIC_INLINE void LL_RTC_DATE_SetMonth(RTC_TypeDef *RTCx, uint32_t Month)
1423:Drivers/STM32L0xx_HAL_Driver/Inc/stm32l0xx_ll_rtc.h **** {
1424:Drivers/STM32L0xx_HAL_Driver/Inc/stm32l0xx_ll_rtc.h ****   MODIFY_REG(RTCx->DR, (RTC_DR_MT | RTC_DR_MU),
1425:Drivers/STM32L0xx_HAL_Driver/Inc/stm32l0xx_ll_rtc.h ****              (((Month & 0xF0U) << (RTC_DR_MT_Pos - 4U)) | ((Month & 0x0FU) << RTC_DR_MU_Pos)));
1426:Drivers/STM32L0xx_HAL_Driver/Inc/stm32l0xx_ll_rtc.h **** }
1427:Drivers/STM32L0xx_HAL_Driver/Inc/stm32l0xx_ll_rtc.h **** 
1428:Drivers/STM32L0xx_HAL_Driver/Inc/stm32l0xx_ll_rtc.h **** /**
1429:Drivers/STM32L0xx_HAL_Driver/Inc/stm32l0xx_ll_rtc.h ****   * @brief  Get Month in BCD format
1430:Drivers/STM32L0xx_HAL_Driver/Inc/stm32l0xx_ll_rtc.h ****   * @note if shadow mode is disabled (BYPSHAD=0), need to check if RSF flag is set
1431:Drivers/STM32L0xx_HAL_Driver/Inc/stm32l0xx_ll_rtc.h ****   *       before reading this bit
1432:Drivers/STM32L0xx_HAL_Driver/Inc/stm32l0xx_ll_rtc.h ****   * @note helper macro __LL_RTC_CONVERT_BCD2BIN is available to convert Month from BCD to Binary fo
1433:Drivers/STM32L0xx_HAL_Driver/Inc/stm32l0xx_ll_rtc.h ****   * @rmtoll DR           MT            LL_RTC_DATE_GetMonth\n
1434:Drivers/STM32L0xx_HAL_Driver/Inc/stm32l0xx_ll_rtc.h ****   *         DR           MU            LL_RTC_DATE_GetMonth
1435:Drivers/STM32L0xx_HAL_Driver/Inc/stm32l0xx_ll_rtc.h ****   * @param  RTCx RTC Instance
1436:Drivers/STM32L0xx_HAL_Driver/Inc/stm32l0xx_ll_rtc.h ****   * @retval Returned value can be one of the following values:
1437:Drivers/STM32L0xx_HAL_Driver/Inc/stm32l0xx_ll_rtc.h ****   *         @arg @ref LL_RTC_MONTH_JANUARY
1438:Drivers/STM32L0xx_HAL_Driver/Inc/stm32l0xx_ll_rtc.h ****   *         @arg @ref LL_RTC_MONTH_FEBRUARY
1439:Drivers/STM32L0xx_HAL_Driver/Inc/stm32l0xx_ll_rtc.h ****   *         @arg @ref LL_RTC_MONTH_MARCH
1440:Drivers/STM32L0xx_HAL_Driver/Inc/stm32l0xx_ll_rtc.h ****   *         @arg @ref LL_RTC_MONTH_APRIL
1441:Drivers/STM32L0xx_HAL_Driver/Inc/stm32l0xx_ll_rtc.h ****   *         @arg @ref LL_RTC_MONTH_MAY
1442:Drivers/STM32L0xx_HAL_Driver/Inc/stm32l0xx_ll_rtc.h ****   *         @arg @ref LL_RTC_MONTH_JUNE
1443:Drivers/STM32L0xx_HAL_Driver/Inc/stm32l0xx_ll_rtc.h ****   *         @arg @ref LL_RTC_MONTH_JULY
1444:Drivers/STM32L0xx_HAL_Driver/Inc/stm32l0xx_ll_rtc.h ****   *         @arg @ref LL_RTC_MONTH_AUGUST
1445:Drivers/STM32L0xx_HAL_Driver/Inc/stm32l0xx_ll_rtc.h ****   *         @arg @ref LL_RTC_MONTH_SEPTEMBER
ARM GAS  C:\Users\Nathan\AppData\Local\Temp\ccAQTZu2.s 			page 39


1446:Drivers/STM32L0xx_HAL_Driver/Inc/stm32l0xx_ll_rtc.h ****   *         @arg @ref LL_RTC_MONTH_OCTOBER
1447:Drivers/STM32L0xx_HAL_Driver/Inc/stm32l0xx_ll_rtc.h ****   *         @arg @ref LL_RTC_MONTH_NOVEMBER
1448:Drivers/STM32L0xx_HAL_Driver/Inc/stm32l0xx_ll_rtc.h ****   *         @arg @ref LL_RTC_MONTH_DECEMBER
1449:Drivers/STM32L0xx_HAL_Driver/Inc/stm32l0xx_ll_rtc.h ****   */
1450:Drivers/STM32L0xx_HAL_Driver/Inc/stm32l0xx_ll_rtc.h **** __STATIC_INLINE uint32_t LL_RTC_DATE_GetMonth(RTC_TypeDef *RTCx)
1451:Drivers/STM32L0xx_HAL_Driver/Inc/stm32l0xx_ll_rtc.h **** {
1452:Drivers/STM32L0xx_HAL_Driver/Inc/stm32l0xx_ll_rtc.h ****   return (uint32_t)((READ_BIT(RTCx->DR, (RTC_DR_MT | RTC_DR_MU))) >> RTC_DR_MU_Pos);
1453:Drivers/STM32L0xx_HAL_Driver/Inc/stm32l0xx_ll_rtc.h **** }
1454:Drivers/STM32L0xx_HAL_Driver/Inc/stm32l0xx_ll_rtc.h **** 
1455:Drivers/STM32L0xx_HAL_Driver/Inc/stm32l0xx_ll_rtc.h **** /**
1456:Drivers/STM32L0xx_HAL_Driver/Inc/stm32l0xx_ll_rtc.h ****   * @brief  Set Day in BCD format
1457:Drivers/STM32L0xx_HAL_Driver/Inc/stm32l0xx_ll_rtc.h ****   * @note helper macro __LL_RTC_CONVERT_BIN2BCD is available to convert Day from binary to BCD form
1458:Drivers/STM32L0xx_HAL_Driver/Inc/stm32l0xx_ll_rtc.h ****   * @rmtoll DR           DT            LL_RTC_DATE_SetDay\n
1459:Drivers/STM32L0xx_HAL_Driver/Inc/stm32l0xx_ll_rtc.h ****   *         DR           DU            LL_RTC_DATE_SetDay
1460:Drivers/STM32L0xx_HAL_Driver/Inc/stm32l0xx_ll_rtc.h ****   * @param  RTCx RTC Instance
1461:Drivers/STM32L0xx_HAL_Driver/Inc/stm32l0xx_ll_rtc.h ****   * @param  Day Value between Min_Data=0x01 and Max_Data=0x31
1462:Drivers/STM32L0xx_HAL_Driver/Inc/stm32l0xx_ll_rtc.h ****   * @retval None
1463:Drivers/STM32L0xx_HAL_Driver/Inc/stm32l0xx_ll_rtc.h ****   */
1464:Drivers/STM32L0xx_HAL_Driver/Inc/stm32l0xx_ll_rtc.h **** __STATIC_INLINE void LL_RTC_DATE_SetDay(RTC_TypeDef *RTCx, uint32_t Day)
1465:Drivers/STM32L0xx_HAL_Driver/Inc/stm32l0xx_ll_rtc.h **** {
1466:Drivers/STM32L0xx_HAL_Driver/Inc/stm32l0xx_ll_rtc.h ****   MODIFY_REG(RTCx->DR, (RTC_DR_DT | RTC_DR_DU),
1467:Drivers/STM32L0xx_HAL_Driver/Inc/stm32l0xx_ll_rtc.h ****              (((Day & 0xF0U) << (RTC_DR_DT_Pos - 4U)) | ((Day & 0x0FU) << RTC_DR_DU_Pos)));
1468:Drivers/STM32L0xx_HAL_Driver/Inc/stm32l0xx_ll_rtc.h **** }
1469:Drivers/STM32L0xx_HAL_Driver/Inc/stm32l0xx_ll_rtc.h **** 
1470:Drivers/STM32L0xx_HAL_Driver/Inc/stm32l0xx_ll_rtc.h **** /**
1471:Drivers/STM32L0xx_HAL_Driver/Inc/stm32l0xx_ll_rtc.h ****   * @brief  Get Day in BCD format
1472:Drivers/STM32L0xx_HAL_Driver/Inc/stm32l0xx_ll_rtc.h ****   * @note if shadow mode is disabled (BYPSHAD=0), need to check if RSF flag is set
1473:Drivers/STM32L0xx_HAL_Driver/Inc/stm32l0xx_ll_rtc.h ****   *       before reading this bit
1474:Drivers/STM32L0xx_HAL_Driver/Inc/stm32l0xx_ll_rtc.h ****   * @note helper macro __LL_RTC_CONVERT_BCD2BIN is available to convert Day from BCD to Binary form
1475:Drivers/STM32L0xx_HAL_Driver/Inc/stm32l0xx_ll_rtc.h ****   * @rmtoll DR           DT            LL_RTC_DATE_GetDay\n
1476:Drivers/STM32L0xx_HAL_Driver/Inc/stm32l0xx_ll_rtc.h ****   *         DR           DU            LL_RTC_DATE_GetDay
1477:Drivers/STM32L0xx_HAL_Driver/Inc/stm32l0xx_ll_rtc.h ****   * @param  RTCx RTC Instance
1478:Drivers/STM32L0xx_HAL_Driver/Inc/stm32l0xx_ll_rtc.h ****   * @retval Value between Min_Data=0x01 and Max_Data=0x31
1479:Drivers/STM32L0xx_HAL_Driver/Inc/stm32l0xx_ll_rtc.h ****   */
1480:Drivers/STM32L0xx_HAL_Driver/Inc/stm32l0xx_ll_rtc.h **** __STATIC_INLINE uint32_t LL_RTC_DATE_GetDay(RTC_TypeDef *RTCx)
1481:Drivers/STM32L0xx_HAL_Driver/Inc/stm32l0xx_ll_rtc.h **** {
1482:Drivers/STM32L0xx_HAL_Driver/Inc/stm32l0xx_ll_rtc.h ****   return (uint32_t)((READ_BIT(RTCx->DR, (RTC_DR_DT | RTC_DR_DU))) >> RTC_DR_DU_Pos);
1483:Drivers/STM32L0xx_HAL_Driver/Inc/stm32l0xx_ll_rtc.h **** }
1484:Drivers/STM32L0xx_HAL_Driver/Inc/stm32l0xx_ll_rtc.h **** 
1485:Drivers/STM32L0xx_HAL_Driver/Inc/stm32l0xx_ll_rtc.h **** /**
1486:Drivers/STM32L0xx_HAL_Driver/Inc/stm32l0xx_ll_rtc.h ****   * @brief  Set date (WeekDay, Day, Month and Year) in BCD format
1487:Drivers/STM32L0xx_HAL_Driver/Inc/stm32l0xx_ll_rtc.h ****   * @rmtoll DR           WDU           LL_RTC_DATE_Config\n
1488:Drivers/STM32L0xx_HAL_Driver/Inc/stm32l0xx_ll_rtc.h ****   *         DR           MT            LL_RTC_DATE_Config\n
1489:Drivers/STM32L0xx_HAL_Driver/Inc/stm32l0xx_ll_rtc.h ****   *         DR           MU            LL_RTC_DATE_Config\n
1490:Drivers/STM32L0xx_HAL_Driver/Inc/stm32l0xx_ll_rtc.h ****   *         DR           DT            LL_RTC_DATE_Config\n
1491:Drivers/STM32L0xx_HAL_Driver/Inc/stm32l0xx_ll_rtc.h ****   *         DR           DU            LL_RTC_DATE_Config\n
1492:Drivers/STM32L0xx_HAL_Driver/Inc/stm32l0xx_ll_rtc.h ****   *         DR           YT            LL_RTC_DATE_Config\n
1493:Drivers/STM32L0xx_HAL_Driver/Inc/stm32l0xx_ll_rtc.h ****   *         DR           YU            LL_RTC_DATE_Config
1494:Drivers/STM32L0xx_HAL_Driver/Inc/stm32l0xx_ll_rtc.h ****   * @param  RTCx RTC Instance
1495:Drivers/STM32L0xx_HAL_Driver/Inc/stm32l0xx_ll_rtc.h ****   * @param  WeekDay This parameter can be one of the following values:
1496:Drivers/STM32L0xx_HAL_Driver/Inc/stm32l0xx_ll_rtc.h ****   *         @arg @ref LL_RTC_WEEKDAY_MONDAY
1497:Drivers/STM32L0xx_HAL_Driver/Inc/stm32l0xx_ll_rtc.h ****   *         @arg @ref LL_RTC_WEEKDAY_TUESDAY
1498:Drivers/STM32L0xx_HAL_Driver/Inc/stm32l0xx_ll_rtc.h ****   *         @arg @ref LL_RTC_WEEKDAY_WEDNESDAY
1499:Drivers/STM32L0xx_HAL_Driver/Inc/stm32l0xx_ll_rtc.h ****   *         @arg @ref LL_RTC_WEEKDAY_THURSDAY
1500:Drivers/STM32L0xx_HAL_Driver/Inc/stm32l0xx_ll_rtc.h ****   *         @arg @ref LL_RTC_WEEKDAY_FRIDAY
1501:Drivers/STM32L0xx_HAL_Driver/Inc/stm32l0xx_ll_rtc.h ****   *         @arg @ref LL_RTC_WEEKDAY_SATURDAY
1502:Drivers/STM32L0xx_HAL_Driver/Inc/stm32l0xx_ll_rtc.h ****   *         @arg @ref LL_RTC_WEEKDAY_SUNDAY
ARM GAS  C:\Users\Nathan\AppData\Local\Temp\ccAQTZu2.s 			page 40


1503:Drivers/STM32L0xx_HAL_Driver/Inc/stm32l0xx_ll_rtc.h ****   * @param  Day Value between Min_Data=0x01 and Max_Data=0x31
1504:Drivers/STM32L0xx_HAL_Driver/Inc/stm32l0xx_ll_rtc.h ****   * @param  Month This parameter can be one of the following values:
1505:Drivers/STM32L0xx_HAL_Driver/Inc/stm32l0xx_ll_rtc.h ****   *         @arg @ref LL_RTC_MONTH_JANUARY
1506:Drivers/STM32L0xx_HAL_Driver/Inc/stm32l0xx_ll_rtc.h ****   *         @arg @ref LL_RTC_MONTH_FEBRUARY
1507:Drivers/STM32L0xx_HAL_Driver/Inc/stm32l0xx_ll_rtc.h ****   *         @arg @ref LL_RTC_MONTH_MARCH
1508:Drivers/STM32L0xx_HAL_Driver/Inc/stm32l0xx_ll_rtc.h ****   *         @arg @ref LL_RTC_MONTH_APRIL
1509:Drivers/STM32L0xx_HAL_Driver/Inc/stm32l0xx_ll_rtc.h ****   *         @arg @ref LL_RTC_MONTH_MAY
1510:Drivers/STM32L0xx_HAL_Driver/Inc/stm32l0xx_ll_rtc.h ****   *         @arg @ref LL_RTC_MONTH_JUNE
1511:Drivers/STM32L0xx_HAL_Driver/Inc/stm32l0xx_ll_rtc.h ****   *         @arg @ref LL_RTC_MONTH_JULY
1512:Drivers/STM32L0xx_HAL_Driver/Inc/stm32l0xx_ll_rtc.h ****   *         @arg @ref LL_RTC_MONTH_AUGUST
1513:Drivers/STM32L0xx_HAL_Driver/Inc/stm32l0xx_ll_rtc.h ****   *         @arg @ref LL_RTC_MONTH_SEPTEMBER
1514:Drivers/STM32L0xx_HAL_Driver/Inc/stm32l0xx_ll_rtc.h ****   *         @arg @ref LL_RTC_MONTH_OCTOBER
1515:Drivers/STM32L0xx_HAL_Driver/Inc/stm32l0xx_ll_rtc.h ****   *         @arg @ref LL_RTC_MONTH_NOVEMBER
1516:Drivers/STM32L0xx_HAL_Driver/Inc/stm32l0xx_ll_rtc.h ****   *         @arg @ref LL_RTC_MONTH_DECEMBER
1517:Drivers/STM32L0xx_HAL_Driver/Inc/stm32l0xx_ll_rtc.h ****   * @param  Year Value between Min_Data=0x00 and Max_Data=0x99
1518:Drivers/STM32L0xx_HAL_Driver/Inc/stm32l0xx_ll_rtc.h ****   * @retval None
1519:Drivers/STM32L0xx_HAL_Driver/Inc/stm32l0xx_ll_rtc.h ****   */
1520:Drivers/STM32L0xx_HAL_Driver/Inc/stm32l0xx_ll_rtc.h **** __STATIC_INLINE void LL_RTC_DATE_Config(RTC_TypeDef *RTCx, uint32_t WeekDay, uint32_t Day, uint32_t
1521:Drivers/STM32L0xx_HAL_Driver/Inc/stm32l0xx_ll_rtc.h **** {
1522:Drivers/STM32L0xx_HAL_Driver/Inc/stm32l0xx_ll_rtc.h ****   uint32_t temp;
1523:Drivers/STM32L0xx_HAL_Driver/Inc/stm32l0xx_ll_rtc.h **** 
1524:Drivers/STM32L0xx_HAL_Driver/Inc/stm32l0xx_ll_rtc.h ****   temp = (  WeekDay                                                    << RTC_DR_WDU_Pos) | \
1525:Drivers/STM32L0xx_HAL_Driver/Inc/stm32l0xx_ll_rtc.h ****          (((Year  & 0xF0U) << (RTC_DR_YT_Pos - 4U)) | ((Year  & 0x0FU) << RTC_DR_YU_Pos)) | \
1526:Drivers/STM32L0xx_HAL_Driver/Inc/stm32l0xx_ll_rtc.h ****          (((Month & 0xF0U) << (RTC_DR_MT_Pos - 4U)) | ((Month & 0x0FU) << RTC_DR_MU_Pos)) | \
1527:Drivers/STM32L0xx_HAL_Driver/Inc/stm32l0xx_ll_rtc.h ****          (((Day   & 0xF0U) << (RTC_DR_DT_Pos - 4U)) | ((Day   & 0x0FU) << RTC_DR_DU_Pos));
1528:Drivers/STM32L0xx_HAL_Driver/Inc/stm32l0xx_ll_rtc.h **** 
1529:Drivers/STM32L0xx_HAL_Driver/Inc/stm32l0xx_ll_rtc.h ****   MODIFY_REG(RTCx->DR, (RTC_DR_WDU | RTC_DR_MT | RTC_DR_MU | RTC_DR_DT | RTC_DR_DU | RTC_DR_YT | RT
1530:Drivers/STM32L0xx_HAL_Driver/Inc/stm32l0xx_ll_rtc.h **** }
1531:Drivers/STM32L0xx_HAL_Driver/Inc/stm32l0xx_ll_rtc.h **** 
1532:Drivers/STM32L0xx_HAL_Driver/Inc/stm32l0xx_ll_rtc.h **** /**
1533:Drivers/STM32L0xx_HAL_Driver/Inc/stm32l0xx_ll_rtc.h ****   * @brief  Get date (WeekDay, Day, Month and Year) in BCD format
1534:Drivers/STM32L0xx_HAL_Driver/Inc/stm32l0xx_ll_rtc.h ****   * @note if shadow mode is disabled (BYPSHAD=0), need to check if RSF flag is set
1535:Drivers/STM32L0xx_HAL_Driver/Inc/stm32l0xx_ll_rtc.h ****   *       before reading this bit
1536:Drivers/STM32L0xx_HAL_Driver/Inc/stm32l0xx_ll_rtc.h ****   * @note helper macros __LL_RTC_GET_WEEKDAY, __LL_RTC_GET_YEAR, __LL_RTC_GET_MONTH,
1537:Drivers/STM32L0xx_HAL_Driver/Inc/stm32l0xx_ll_rtc.h ****   * and __LL_RTC_GET_DAY are available to get independently each parameter.
1538:Drivers/STM32L0xx_HAL_Driver/Inc/stm32l0xx_ll_rtc.h ****   * @rmtoll DR           WDU           LL_RTC_DATE_Get\n
1539:Drivers/STM32L0xx_HAL_Driver/Inc/stm32l0xx_ll_rtc.h ****   *         DR           MT            LL_RTC_DATE_Get\n
1540:Drivers/STM32L0xx_HAL_Driver/Inc/stm32l0xx_ll_rtc.h ****   *         DR           MU            LL_RTC_DATE_Get\n
1541:Drivers/STM32L0xx_HAL_Driver/Inc/stm32l0xx_ll_rtc.h ****   *         DR           DT            LL_RTC_DATE_Get\n
1542:Drivers/STM32L0xx_HAL_Driver/Inc/stm32l0xx_ll_rtc.h ****   *         DR           DU            LL_RTC_DATE_Get\n
1543:Drivers/STM32L0xx_HAL_Driver/Inc/stm32l0xx_ll_rtc.h ****   *         DR           YT            LL_RTC_DATE_Get\n
1544:Drivers/STM32L0xx_HAL_Driver/Inc/stm32l0xx_ll_rtc.h ****   *         DR           YU            LL_RTC_DATE_Get
1545:Drivers/STM32L0xx_HAL_Driver/Inc/stm32l0xx_ll_rtc.h ****   * @param  RTCx RTC Instance
1546:Drivers/STM32L0xx_HAL_Driver/Inc/stm32l0xx_ll_rtc.h ****   * @retval Combination of WeekDay, Day, Month and Year (Format: 0xWWDDMMYY).
1547:Drivers/STM32L0xx_HAL_Driver/Inc/stm32l0xx_ll_rtc.h ****   */
1548:Drivers/STM32L0xx_HAL_Driver/Inc/stm32l0xx_ll_rtc.h **** __STATIC_INLINE uint32_t LL_RTC_DATE_Get(RTC_TypeDef *RTCx)
1549:Drivers/STM32L0xx_HAL_Driver/Inc/stm32l0xx_ll_rtc.h **** {
1550:Drivers/STM32L0xx_HAL_Driver/Inc/stm32l0xx_ll_rtc.h ****   uint32_t temp;
1551:Drivers/STM32L0xx_HAL_Driver/Inc/stm32l0xx_ll_rtc.h **** 
1552:Drivers/STM32L0xx_HAL_Driver/Inc/stm32l0xx_ll_rtc.h ****   temp = READ_BIT(RTCx->DR, (RTC_DR_WDU | RTC_DR_MT | RTC_DR_MU | RTC_DR_DT | RTC_DR_DU | RTC_DR_YT
1553:Drivers/STM32L0xx_HAL_Driver/Inc/stm32l0xx_ll_rtc.h **** 
1554:Drivers/STM32L0xx_HAL_Driver/Inc/stm32l0xx_ll_rtc.h ****   return (uint32_t)((((temp &              RTC_DR_WDU) >> RTC_DR_WDU_Pos) << RTC_OFFSET_WEEKDAY) | 
1555:Drivers/STM32L0xx_HAL_Driver/Inc/stm32l0xx_ll_rtc.h ****                     (((temp & (RTC_DR_DT | RTC_DR_DU)) >> RTC_DR_DU_Pos)  << RTC_OFFSET_DAY)     | 
1556:Drivers/STM32L0xx_HAL_Driver/Inc/stm32l0xx_ll_rtc.h ****                     (((temp & (RTC_DR_MT | RTC_DR_MU)) >> RTC_DR_MU_Pos)  << RTC_OFFSET_MONTH)   | 
1557:Drivers/STM32L0xx_HAL_Driver/Inc/stm32l0xx_ll_rtc.h ****                      ((temp & (RTC_DR_YT | RTC_DR_YU)) >> RTC_DR_YU_Pos));
1558:Drivers/STM32L0xx_HAL_Driver/Inc/stm32l0xx_ll_rtc.h **** }
1559:Drivers/STM32L0xx_HAL_Driver/Inc/stm32l0xx_ll_rtc.h **** 
ARM GAS  C:\Users\Nathan\AppData\Local\Temp\ccAQTZu2.s 			page 41


1560:Drivers/STM32L0xx_HAL_Driver/Inc/stm32l0xx_ll_rtc.h **** /**
1561:Drivers/STM32L0xx_HAL_Driver/Inc/stm32l0xx_ll_rtc.h ****   * @}
1562:Drivers/STM32L0xx_HAL_Driver/Inc/stm32l0xx_ll_rtc.h ****   */
1563:Drivers/STM32L0xx_HAL_Driver/Inc/stm32l0xx_ll_rtc.h **** 
1564:Drivers/STM32L0xx_HAL_Driver/Inc/stm32l0xx_ll_rtc.h **** /** @defgroup RTC_LL_EF_ALARMA ALARMA
1565:Drivers/STM32L0xx_HAL_Driver/Inc/stm32l0xx_ll_rtc.h ****   * @{
1566:Drivers/STM32L0xx_HAL_Driver/Inc/stm32l0xx_ll_rtc.h ****   */
1567:Drivers/STM32L0xx_HAL_Driver/Inc/stm32l0xx_ll_rtc.h **** 
1568:Drivers/STM32L0xx_HAL_Driver/Inc/stm32l0xx_ll_rtc.h **** /**
1569:Drivers/STM32L0xx_HAL_Driver/Inc/stm32l0xx_ll_rtc.h ****   * @brief  Enable Alarm A
1570:Drivers/STM32L0xx_HAL_Driver/Inc/stm32l0xx_ll_rtc.h ****   * @note   Bit is write-protected. @ref LL_RTC_DisableWriteProtection function should be called be
1571:Drivers/STM32L0xx_HAL_Driver/Inc/stm32l0xx_ll_rtc.h ****   * @rmtoll CR           ALRAE         LL_RTC_ALMA_Enable
1572:Drivers/STM32L0xx_HAL_Driver/Inc/stm32l0xx_ll_rtc.h ****   * @param  RTCx RTC Instance
1573:Drivers/STM32L0xx_HAL_Driver/Inc/stm32l0xx_ll_rtc.h ****   * @retval None
1574:Drivers/STM32L0xx_HAL_Driver/Inc/stm32l0xx_ll_rtc.h ****   */
1575:Drivers/STM32L0xx_HAL_Driver/Inc/stm32l0xx_ll_rtc.h **** __STATIC_INLINE void LL_RTC_ALMA_Enable(RTC_TypeDef *RTCx)
1576:Drivers/STM32L0xx_HAL_Driver/Inc/stm32l0xx_ll_rtc.h **** {
1577:Drivers/STM32L0xx_HAL_Driver/Inc/stm32l0xx_ll_rtc.h ****   SET_BIT(RTCx->CR, RTC_CR_ALRAE);
1578:Drivers/STM32L0xx_HAL_Driver/Inc/stm32l0xx_ll_rtc.h **** }
1579:Drivers/STM32L0xx_HAL_Driver/Inc/stm32l0xx_ll_rtc.h **** 
1580:Drivers/STM32L0xx_HAL_Driver/Inc/stm32l0xx_ll_rtc.h **** /**
1581:Drivers/STM32L0xx_HAL_Driver/Inc/stm32l0xx_ll_rtc.h ****   * @brief  Disable Alarm A
1582:Drivers/STM32L0xx_HAL_Driver/Inc/stm32l0xx_ll_rtc.h ****   * @note   Bit is write-protected. @ref LL_RTC_DisableWriteProtection function should be called be
1583:Drivers/STM32L0xx_HAL_Driver/Inc/stm32l0xx_ll_rtc.h ****   * @rmtoll CR           ALRAE         LL_RTC_ALMA_Disable
1584:Drivers/STM32L0xx_HAL_Driver/Inc/stm32l0xx_ll_rtc.h ****   * @param  RTCx RTC Instance
1585:Drivers/STM32L0xx_HAL_Driver/Inc/stm32l0xx_ll_rtc.h ****   * @retval None
1586:Drivers/STM32L0xx_HAL_Driver/Inc/stm32l0xx_ll_rtc.h ****   */
1587:Drivers/STM32L0xx_HAL_Driver/Inc/stm32l0xx_ll_rtc.h **** __STATIC_INLINE void LL_RTC_ALMA_Disable(RTC_TypeDef *RTCx)
1588:Drivers/STM32L0xx_HAL_Driver/Inc/stm32l0xx_ll_rtc.h **** {
1589:Drivers/STM32L0xx_HAL_Driver/Inc/stm32l0xx_ll_rtc.h ****   CLEAR_BIT(RTCx->CR, RTC_CR_ALRAE);
1590:Drivers/STM32L0xx_HAL_Driver/Inc/stm32l0xx_ll_rtc.h **** }
1591:Drivers/STM32L0xx_HAL_Driver/Inc/stm32l0xx_ll_rtc.h **** 
1592:Drivers/STM32L0xx_HAL_Driver/Inc/stm32l0xx_ll_rtc.h **** /**
1593:Drivers/STM32L0xx_HAL_Driver/Inc/stm32l0xx_ll_rtc.h ****   * @brief  Specify the Alarm A masks.
1594:Drivers/STM32L0xx_HAL_Driver/Inc/stm32l0xx_ll_rtc.h ****   * @rmtoll ALRMAR       MSK4          LL_RTC_ALMA_SetMask\n
1595:Drivers/STM32L0xx_HAL_Driver/Inc/stm32l0xx_ll_rtc.h ****   *         ALRMAR       MSK3          LL_RTC_ALMA_SetMask\n
1596:Drivers/STM32L0xx_HAL_Driver/Inc/stm32l0xx_ll_rtc.h ****   *         ALRMAR       MSK2          LL_RTC_ALMA_SetMask\n
1597:Drivers/STM32L0xx_HAL_Driver/Inc/stm32l0xx_ll_rtc.h ****   *         ALRMAR       MSK1          LL_RTC_ALMA_SetMask
1598:Drivers/STM32L0xx_HAL_Driver/Inc/stm32l0xx_ll_rtc.h ****   * @param  RTCx RTC Instance
1599:Drivers/STM32L0xx_HAL_Driver/Inc/stm32l0xx_ll_rtc.h ****   * @param  Mask This parameter can be a combination of the following values:
1600:Drivers/STM32L0xx_HAL_Driver/Inc/stm32l0xx_ll_rtc.h ****   *         @arg @ref LL_RTC_ALMA_MASK_NONE
1601:Drivers/STM32L0xx_HAL_Driver/Inc/stm32l0xx_ll_rtc.h ****   *         @arg @ref LL_RTC_ALMA_MASK_DATEWEEKDAY
1602:Drivers/STM32L0xx_HAL_Driver/Inc/stm32l0xx_ll_rtc.h ****   *         @arg @ref LL_RTC_ALMA_MASK_HOURS
1603:Drivers/STM32L0xx_HAL_Driver/Inc/stm32l0xx_ll_rtc.h ****   *         @arg @ref LL_RTC_ALMA_MASK_MINUTES
1604:Drivers/STM32L0xx_HAL_Driver/Inc/stm32l0xx_ll_rtc.h ****   *         @arg @ref LL_RTC_ALMA_MASK_SECONDS
1605:Drivers/STM32L0xx_HAL_Driver/Inc/stm32l0xx_ll_rtc.h ****   *         @arg @ref LL_RTC_ALMA_MASK_ALL
1606:Drivers/STM32L0xx_HAL_Driver/Inc/stm32l0xx_ll_rtc.h ****   * @retval None
1607:Drivers/STM32L0xx_HAL_Driver/Inc/stm32l0xx_ll_rtc.h ****   */
1608:Drivers/STM32L0xx_HAL_Driver/Inc/stm32l0xx_ll_rtc.h **** __STATIC_INLINE void LL_RTC_ALMA_SetMask(RTC_TypeDef *RTCx, uint32_t Mask)
1609:Drivers/STM32L0xx_HAL_Driver/Inc/stm32l0xx_ll_rtc.h **** {
1610:Drivers/STM32L0xx_HAL_Driver/Inc/stm32l0xx_ll_rtc.h ****   MODIFY_REG(RTCx->ALRMAR, RTC_ALRMAR_MSK4 | RTC_ALRMAR_MSK3 | RTC_ALRMAR_MSK2 | RTC_ALRMAR_MSK1, M
1611:Drivers/STM32L0xx_HAL_Driver/Inc/stm32l0xx_ll_rtc.h **** }
1612:Drivers/STM32L0xx_HAL_Driver/Inc/stm32l0xx_ll_rtc.h **** 
1613:Drivers/STM32L0xx_HAL_Driver/Inc/stm32l0xx_ll_rtc.h **** /**
1614:Drivers/STM32L0xx_HAL_Driver/Inc/stm32l0xx_ll_rtc.h ****   * @brief  Get the Alarm A masks.
1615:Drivers/STM32L0xx_HAL_Driver/Inc/stm32l0xx_ll_rtc.h ****   * @rmtoll ALRMAR       MSK4          LL_RTC_ALMA_GetMask\n
1616:Drivers/STM32L0xx_HAL_Driver/Inc/stm32l0xx_ll_rtc.h ****   *         ALRMAR       MSK3          LL_RTC_ALMA_GetMask\n
ARM GAS  C:\Users\Nathan\AppData\Local\Temp\ccAQTZu2.s 			page 42


1617:Drivers/STM32L0xx_HAL_Driver/Inc/stm32l0xx_ll_rtc.h ****   *         ALRMAR       MSK2          LL_RTC_ALMA_GetMask\n
1618:Drivers/STM32L0xx_HAL_Driver/Inc/stm32l0xx_ll_rtc.h ****   *         ALRMAR       MSK1          LL_RTC_ALMA_GetMask
1619:Drivers/STM32L0xx_HAL_Driver/Inc/stm32l0xx_ll_rtc.h ****   * @param  RTCx RTC Instance
1620:Drivers/STM32L0xx_HAL_Driver/Inc/stm32l0xx_ll_rtc.h ****   * @retval Returned value can be can be a combination of the following values:
1621:Drivers/STM32L0xx_HAL_Driver/Inc/stm32l0xx_ll_rtc.h ****   *         @arg @ref LL_RTC_ALMA_MASK_NONE
1622:Drivers/STM32L0xx_HAL_Driver/Inc/stm32l0xx_ll_rtc.h ****   *         @arg @ref LL_RTC_ALMA_MASK_DATEWEEKDAY
1623:Drivers/STM32L0xx_HAL_Driver/Inc/stm32l0xx_ll_rtc.h ****   *         @arg @ref LL_RTC_ALMA_MASK_HOURS
1624:Drivers/STM32L0xx_HAL_Driver/Inc/stm32l0xx_ll_rtc.h ****   *         @arg @ref LL_RTC_ALMA_MASK_MINUTES
1625:Drivers/STM32L0xx_HAL_Driver/Inc/stm32l0xx_ll_rtc.h ****   *         @arg @ref LL_RTC_ALMA_MASK_SECONDS
1626:Drivers/STM32L0xx_HAL_Driver/Inc/stm32l0xx_ll_rtc.h ****   *         @arg @ref LL_RTC_ALMA_MASK_ALL
1627:Drivers/STM32L0xx_HAL_Driver/Inc/stm32l0xx_ll_rtc.h ****   */
1628:Drivers/STM32L0xx_HAL_Driver/Inc/stm32l0xx_ll_rtc.h **** __STATIC_INLINE uint32_t LL_RTC_ALMA_GetMask(RTC_TypeDef *RTCx)
1629:Drivers/STM32L0xx_HAL_Driver/Inc/stm32l0xx_ll_rtc.h **** {
1630:Drivers/STM32L0xx_HAL_Driver/Inc/stm32l0xx_ll_rtc.h ****   return (uint32_t)(READ_BIT(RTCx->ALRMAR, RTC_ALRMAR_MSK4 | RTC_ALRMAR_MSK3 | RTC_ALRMAR_MSK2 | RT
1631:Drivers/STM32L0xx_HAL_Driver/Inc/stm32l0xx_ll_rtc.h **** }
1632:Drivers/STM32L0xx_HAL_Driver/Inc/stm32l0xx_ll_rtc.h **** 
1633:Drivers/STM32L0xx_HAL_Driver/Inc/stm32l0xx_ll_rtc.h **** /**
1634:Drivers/STM32L0xx_HAL_Driver/Inc/stm32l0xx_ll_rtc.h ****   * @brief  Enable AlarmA Week day selection (DU[3:0] represents the week day. DT[1:0] is do not ca
1635:Drivers/STM32L0xx_HAL_Driver/Inc/stm32l0xx_ll_rtc.h ****   * @rmtoll ALRMAR       WDSEL         LL_RTC_ALMA_EnableWeekday
1636:Drivers/STM32L0xx_HAL_Driver/Inc/stm32l0xx_ll_rtc.h ****   * @param  RTCx RTC Instance
1637:Drivers/STM32L0xx_HAL_Driver/Inc/stm32l0xx_ll_rtc.h ****   * @retval None
1638:Drivers/STM32L0xx_HAL_Driver/Inc/stm32l0xx_ll_rtc.h ****   */
1639:Drivers/STM32L0xx_HAL_Driver/Inc/stm32l0xx_ll_rtc.h **** __STATIC_INLINE void LL_RTC_ALMA_EnableWeekday(RTC_TypeDef *RTCx)
1640:Drivers/STM32L0xx_HAL_Driver/Inc/stm32l0xx_ll_rtc.h **** {
1641:Drivers/STM32L0xx_HAL_Driver/Inc/stm32l0xx_ll_rtc.h ****   SET_BIT(RTCx->ALRMAR, RTC_ALRMAR_WDSEL);
1642:Drivers/STM32L0xx_HAL_Driver/Inc/stm32l0xx_ll_rtc.h **** }
1643:Drivers/STM32L0xx_HAL_Driver/Inc/stm32l0xx_ll_rtc.h **** 
1644:Drivers/STM32L0xx_HAL_Driver/Inc/stm32l0xx_ll_rtc.h **** /**
1645:Drivers/STM32L0xx_HAL_Driver/Inc/stm32l0xx_ll_rtc.h ****   * @brief  Disable AlarmA Week day selection (DU[3:0] represents the date )
1646:Drivers/STM32L0xx_HAL_Driver/Inc/stm32l0xx_ll_rtc.h ****   * @rmtoll ALRMAR       WDSEL         LL_RTC_ALMA_DisableWeekday
1647:Drivers/STM32L0xx_HAL_Driver/Inc/stm32l0xx_ll_rtc.h ****   * @param  RTCx RTC Instance
1648:Drivers/STM32L0xx_HAL_Driver/Inc/stm32l0xx_ll_rtc.h ****   * @retval None
1649:Drivers/STM32L0xx_HAL_Driver/Inc/stm32l0xx_ll_rtc.h ****   */
1650:Drivers/STM32L0xx_HAL_Driver/Inc/stm32l0xx_ll_rtc.h **** __STATIC_INLINE void LL_RTC_ALMA_DisableWeekday(RTC_TypeDef *RTCx)
 217              		.loc 2 1650 22 view .LVU57
 218              	.LBB119:
1651:Drivers/STM32L0xx_HAL_Driver/Inc/stm32l0xx_ll_rtc.h **** {
1652:Drivers/STM32L0xx_HAL_Driver/Inc/stm32l0xx_ll_rtc.h ****   CLEAR_BIT(RTCx->ALRMAR, RTC_ALRMAR_WDSEL);
 219              		.loc 2 1652 3 view .LVU58
 220 002c E369     		ldr	r3, [r4, #28]
 221 002e 444A     		ldr	r2, .L14
 222              	.LVL9:
 223              		.loc 2 1652 3 is_stmt 0 view .LVU59
 224 0030 1340     		ands	r3, r2
 225 0032 E361     		str	r3, [r4, #28]
 226              	.LVL10:
 227              		.loc 2 1652 3 view .LVU60
 228              	.LBE119:
 229              	.LBE118:
 513:Drivers/STM32L0xx_HAL_Driver/Src/stm32l0xx_ll_rtc.c ****     if (RTC_Format != LL_RTC_FORMAT_BIN)
 230              		.loc 1 513 5 is_stmt 1 view .LVU61
 231              		.loc 1 513 8 is_stmt 0 view .LVU62
 232 0034 002E     		cmp	r6, #0
 233 0036 0DD0     		beq	.L10
 514:Drivers/STM32L0xx_HAL_Driver/Src/stm32l0xx_ll_rtc.c ****     {
 515:Drivers/STM32L0xx_HAL_Driver/Src/stm32l0xx_ll_rtc.c ****       LL_RTC_ALMA_SetDay(RTCx, RTC_AlarmStruct->AlarmDateWeekDay);
 234              		.loc 1 515 7 is_stmt 1 view .LVU63
ARM GAS  C:\Users\Nathan\AppData\Local\Temp\ccAQTZu2.s 			page 43


 235              		.loc 1 515 47 is_stmt 0 view .LVU64
 236 0038 2A7C     		ldrb	r2, [r5, #16]
 237              	.LVL11:
 238              	.LBB120:
 239              	.LBI120:
1653:Drivers/STM32L0xx_HAL_Driver/Inc/stm32l0xx_ll_rtc.h **** }
1654:Drivers/STM32L0xx_HAL_Driver/Inc/stm32l0xx_ll_rtc.h **** 
1655:Drivers/STM32L0xx_HAL_Driver/Inc/stm32l0xx_ll_rtc.h **** /**
1656:Drivers/STM32L0xx_HAL_Driver/Inc/stm32l0xx_ll_rtc.h ****   * @brief  Set ALARM A Day in BCD format
1657:Drivers/STM32L0xx_HAL_Driver/Inc/stm32l0xx_ll_rtc.h ****   * @note helper macro __LL_RTC_CONVERT_BIN2BCD is available to convert Day from binary to BCD form
1658:Drivers/STM32L0xx_HAL_Driver/Inc/stm32l0xx_ll_rtc.h ****   * @rmtoll ALRMAR       DT            LL_RTC_ALMA_SetDay\n
1659:Drivers/STM32L0xx_HAL_Driver/Inc/stm32l0xx_ll_rtc.h ****   *         ALRMAR       DU            LL_RTC_ALMA_SetDay
1660:Drivers/STM32L0xx_HAL_Driver/Inc/stm32l0xx_ll_rtc.h ****   * @param  RTCx RTC Instance
1661:Drivers/STM32L0xx_HAL_Driver/Inc/stm32l0xx_ll_rtc.h ****   * @param  Day Value between Min_Data=0x01 and Max_Data=0x31
1662:Drivers/STM32L0xx_HAL_Driver/Inc/stm32l0xx_ll_rtc.h ****   * @retval None
1663:Drivers/STM32L0xx_HAL_Driver/Inc/stm32l0xx_ll_rtc.h ****   */
1664:Drivers/STM32L0xx_HAL_Driver/Inc/stm32l0xx_ll_rtc.h **** __STATIC_INLINE void LL_RTC_ALMA_SetDay(RTC_TypeDef *RTCx, uint32_t Day)
 240              		.loc 2 1664 22 is_stmt 1 view .LVU65
 241              	.LBB121:
1665:Drivers/STM32L0xx_HAL_Driver/Inc/stm32l0xx_ll_rtc.h **** {
1666:Drivers/STM32L0xx_HAL_Driver/Inc/stm32l0xx_ll_rtc.h ****   MODIFY_REG(RTCx->ALRMAR, (RTC_ALRMAR_DT | RTC_ALRMAR_DU),
 242              		.loc 2 1666 3 view .LVU66
 243 003a E369     		ldr	r3, [r4, #28]
 244 003c 4149     		ldr	r1, .L14+4
 245              	.LVL12:
 246              		.loc 2 1666 3 is_stmt 0 view .LVU67
 247 003e 0B40     		ands	r3, r1
 248 0040 1206     		lsls	r2, r2, #24
 249              	.LVL13:
 250              		.loc 2 1666 3 view .LVU68
 251 0042 1343     		orrs	r3, r2
 252 0044 E361     		str	r3, [r4, #28]
 253              	.LVL14:
1667:Drivers/STM32L0xx_HAL_Driver/Inc/stm32l0xx_ll_rtc.h ****              (((Day & 0xF0U) << (RTC_ALRMAR_DT_Pos - 4U)) | ((Day & 0x0FU) << RTC_ALRMAR_DU_Pos)));
1668:Drivers/STM32L0xx_HAL_Driver/Inc/stm32l0xx_ll_rtc.h **** }
 254              		.loc 2 1668 1 view .LVU69
 255 0046 25E0     		b	.L11
 256              	.LVL15:
 257              	.L5:
 258              		.loc 2 1668 1 view .LVU70
 259              	.LBE121:
 260              	.LBE120:
 481:Drivers/STM32L0xx_HAL_Driver/Src/stm32l0xx_ll_rtc.c ****     {
 261              		.loc 1 481 5 is_stmt 1 view .LVU71
 262              	.LBB122:
 263              	.LBI122:
 755:Drivers/STM32L0xx_HAL_Driver/Inc/stm32l0xx_ll_rtc.h **** {
 264              		.loc 2 755 26 view .LVU72
 265              	.LBB123:
 757:Drivers/STM32L0xx_HAL_Driver/Inc/stm32l0xx_ll_rtc.h **** }
 266              		.loc 2 757 3 view .LVU73
 757:Drivers/STM32L0xx_HAL_Driver/Inc/stm32l0xx_ll_rtc.h **** }
 267              		.loc 2 757 21 is_stmt 0 view .LVU74
 268 0048 8368     		ldr	r3, [r0, #8]
 269              	.LVL16:
 757:Drivers/STM32L0xx_HAL_Driver/Inc/stm32l0xx_ll_rtc.h **** }
 270              		.loc 2 757 21 view .LVU75
ARM GAS  C:\Users\Nathan\AppData\Local\Temp\ccAQTZu2.s 			page 44


 271              	.LBE123:
 272              	.LBE122:
 481:Drivers/STM32L0xx_HAL_Driver/Src/stm32l0xx_ll_rtc.c ****     {
 273              		.loc 1 481 8 view .LVU76
 274 004a 5B06     		lsls	r3, r3, #25
 275 004c E7D4     		bmi	.L7
 488:Drivers/STM32L0xx_HAL_Driver/Src/stm32l0xx_ll_rtc.c ****       assert_param(IS_LL_RTC_HOUR24(__LL_RTC_CONVERT_BCD2BIN(RTC_AlarmStruct->AlarmTime.Hours)));
 276              		.loc 1 488 7 is_stmt 1 view .LVU77
 488:Drivers/STM32L0xx_HAL_Driver/Src/stm32l0xx_ll_rtc.c ****       assert_param(IS_LL_RTC_HOUR24(__LL_RTC_CONVERT_BCD2BIN(RTC_AlarmStruct->AlarmTime.Hours)));
 277              		.loc 1 488 45 is_stmt 0 view .LVU78
 278 004e 0023     		movs	r3, #0
 279 0050 1360     		str	r3, [r2]
 489:Drivers/STM32L0xx_HAL_Driver/Src/stm32l0xx_ll_rtc.c ****     }
 280              		.loc 1 489 7 is_stmt 1 view .LVU79
 492:Drivers/STM32L0xx_HAL_Driver/Src/stm32l0xx_ll_rtc.c ****     assert_param(IS_LL_RTC_SECONDS(__LL_RTC_CONVERT_BCD2BIN(RTC_AlarmStruct->AlarmTime.Seconds)));
 281              		.loc 1 492 5 view .LVU80
 493:Drivers/STM32L0xx_HAL_Driver/Src/stm32l0xx_ll_rtc.c **** 
 282              		.loc 1 493 5 view .LVU81
 495:Drivers/STM32L0xx_HAL_Driver/Src/stm32l0xx_ll_rtc.c ****     {
 283              		.loc 1 495 5 view .LVU82
 284 0052 E4E7     		b	.L7
 285              	.LVL17:
 286              	.L10:
 516:Drivers/STM32L0xx_HAL_Driver/Src/stm32l0xx_ll_rtc.c ****     }
 517:Drivers/STM32L0xx_HAL_Driver/Src/stm32l0xx_ll_rtc.c ****     else
 518:Drivers/STM32L0xx_HAL_Driver/Src/stm32l0xx_ll_rtc.c ****     {
 519:Drivers/STM32L0xx_HAL_Driver/Src/stm32l0xx_ll_rtc.c ****       LL_RTC_ALMA_SetDay(RTCx, __LL_RTC_CONVERT_BIN2BCD(RTC_AlarmStruct->AlarmDateWeekDay));
 287              		.loc 1 519 7 view .LVU83
 288              		.loc 1 519 32 is_stmt 0 view .LVU84
 289 0054 2B7C     		ldrb	r3, [r5, #16]
 290 0056 9846     		mov	r8, r3
 291 0058 0A21     		movs	r1, #10
 292              	.LVL18:
 293              		.loc 1 519 32 view .LVU85
 294 005a 1800     		movs	r0, r3
 295              	.LVL19:
 296              		.loc 1 519 32 view .LVU86
 297 005c FFF7FEFF 		bl	__aeabi_uidiv
 298              	.LVL20:
 299 0060 0701     		lsls	r7, r0, #4
 300 0062 FFB2     		uxtb	r7, r7
 301 0064 0A21     		movs	r1, #10
 302 0066 4046     		mov	r0, r8
 303 0068 FFF7FEFF 		bl	__aeabi_uidivmod
 304              	.LVL21:
 305 006c 0F43     		orrs	r7, r1
 306              	.LVL22:
 307              	.LBB124:
 308              	.LBI124:
1664:Drivers/STM32L0xx_HAL_Driver/Inc/stm32l0xx_ll_rtc.h **** {
 309              		.loc 2 1664 22 is_stmt 1 view .LVU87
 310              	.LBB125:
1666:Drivers/STM32L0xx_HAL_Driver/Inc/stm32l0xx_ll_rtc.h ****              (((Day & 0xF0U) << (RTC_ALRMAR_DT_Pos - 4U)) | ((Day & 0x0FU) << RTC_ALRMAR_DU_Pos)));
 311              		.loc 2 1666 3 view .LVU88
 312 006e E169     		ldr	r1, [r4, #28]
 313 0070 344B     		ldr	r3, .L14+4
 314 0072 0B40     		ands	r3, r1
ARM GAS  C:\Users\Nathan\AppData\Local\Temp\ccAQTZu2.s 			page 45


 315 0074 3906     		lsls	r1, r7, #24
 316 0076 1943     		orrs	r1, r3
 317 0078 E161     		str	r1, [r4, #28]
 318              		.loc 2 1668 1 is_stmt 0 view .LVU89
 319 007a 0BE0     		b	.L11
 320              	.LVL23:
 321              	.L9:
 322              		.loc 2 1668 1 view .LVU90
 323              	.LBE125:
 324              	.LBE124:
 520:Drivers/STM32L0xx_HAL_Driver/Src/stm32l0xx_ll_rtc.c ****     }
 521:Drivers/STM32L0xx_HAL_Driver/Src/stm32l0xx_ll_rtc.c ****   }
 522:Drivers/STM32L0xx_HAL_Driver/Src/stm32l0xx_ll_rtc.c ****   else
 523:Drivers/STM32L0xx_HAL_Driver/Src/stm32l0xx_ll_rtc.c ****   {
 524:Drivers/STM32L0xx_HAL_Driver/Src/stm32l0xx_ll_rtc.c ****     /* Set the week day for ALARM */
 525:Drivers/STM32L0xx_HAL_Driver/Src/stm32l0xx_ll_rtc.c ****     LL_RTC_ALMA_EnableWeekday(RTCx);
 325              		.loc 1 525 5 is_stmt 1 view .LVU91
 326              	.LBB126:
 327              	.LBI126:
1639:Drivers/STM32L0xx_HAL_Driver/Inc/stm32l0xx_ll_rtc.h **** {
 328              		.loc 2 1639 22 view .LVU92
 329              	.LBB127:
1641:Drivers/STM32L0xx_HAL_Driver/Inc/stm32l0xx_ll_rtc.h **** }
 330              		.loc 2 1641 3 view .LVU93
 331 007c E269     		ldr	r2, [r4, #28]
 332              	.LVL24:
1641:Drivers/STM32L0xx_HAL_Driver/Inc/stm32l0xx_ll_rtc.h **** }
 333              		.loc 2 1641 3 is_stmt 0 view .LVU94
 334 007e 8023     		movs	r3, #128
 335 0080 DB05     		lsls	r3, r3, #23
 336 0082 1343     		orrs	r3, r2
 337 0084 E361     		str	r3, [r4, #28]
 338              	.LVL25:
1641:Drivers/STM32L0xx_HAL_Driver/Inc/stm32l0xx_ll_rtc.h **** }
 339              		.loc 2 1641 3 view .LVU95
 340              	.LBE127:
 341              	.LBE126:
 526:Drivers/STM32L0xx_HAL_Driver/Src/stm32l0xx_ll_rtc.c ****     LL_RTC_ALMA_SetWeekDay(RTCx, RTC_AlarmStruct->AlarmDateWeekDay);
 342              		.loc 1 526 5 is_stmt 1 view .LVU96
 343              		.loc 1 526 49 is_stmt 0 view .LVU97
 344 0086 2A7C     		ldrb	r2, [r5, #16]
 345              	.LVL26:
 346              	.LBB128:
 347              	.LBI128:
1669:Drivers/STM32L0xx_HAL_Driver/Inc/stm32l0xx_ll_rtc.h **** 
1670:Drivers/STM32L0xx_HAL_Driver/Inc/stm32l0xx_ll_rtc.h **** /**
1671:Drivers/STM32L0xx_HAL_Driver/Inc/stm32l0xx_ll_rtc.h ****   * @brief  Get ALARM A Day in BCD format
1672:Drivers/STM32L0xx_HAL_Driver/Inc/stm32l0xx_ll_rtc.h ****   * @note helper macro __LL_RTC_CONVERT_BCD2BIN is available to convert Day from BCD to Binary form
1673:Drivers/STM32L0xx_HAL_Driver/Inc/stm32l0xx_ll_rtc.h ****   * @rmtoll ALRMAR       DT            LL_RTC_ALMA_GetDay\n
1674:Drivers/STM32L0xx_HAL_Driver/Inc/stm32l0xx_ll_rtc.h ****   *         ALRMAR       DU            LL_RTC_ALMA_GetDay
1675:Drivers/STM32L0xx_HAL_Driver/Inc/stm32l0xx_ll_rtc.h ****   * @param  RTCx RTC Instance
1676:Drivers/STM32L0xx_HAL_Driver/Inc/stm32l0xx_ll_rtc.h ****   * @retval Value between Min_Data=0x01 and Max_Data=0x31
1677:Drivers/STM32L0xx_HAL_Driver/Inc/stm32l0xx_ll_rtc.h ****   */
1678:Drivers/STM32L0xx_HAL_Driver/Inc/stm32l0xx_ll_rtc.h **** __STATIC_INLINE uint32_t LL_RTC_ALMA_GetDay(RTC_TypeDef *RTCx)
1679:Drivers/STM32L0xx_HAL_Driver/Inc/stm32l0xx_ll_rtc.h **** {
1680:Drivers/STM32L0xx_HAL_Driver/Inc/stm32l0xx_ll_rtc.h ****   return (uint32_t)((READ_BIT(RTCx->ALRMAR, (RTC_ALRMAR_DT | RTC_ALRMAR_DU))) >> RTC_ALRMAR_DU_Pos)
1681:Drivers/STM32L0xx_HAL_Driver/Inc/stm32l0xx_ll_rtc.h **** }
ARM GAS  C:\Users\Nathan\AppData\Local\Temp\ccAQTZu2.s 			page 46


1682:Drivers/STM32L0xx_HAL_Driver/Inc/stm32l0xx_ll_rtc.h **** 
1683:Drivers/STM32L0xx_HAL_Driver/Inc/stm32l0xx_ll_rtc.h **** /**
1684:Drivers/STM32L0xx_HAL_Driver/Inc/stm32l0xx_ll_rtc.h ****   * @brief  Set ALARM A Weekday
1685:Drivers/STM32L0xx_HAL_Driver/Inc/stm32l0xx_ll_rtc.h ****   * @rmtoll ALRMAR       DU            LL_RTC_ALMA_SetWeekDay
1686:Drivers/STM32L0xx_HAL_Driver/Inc/stm32l0xx_ll_rtc.h ****   * @param  RTCx RTC Instance
1687:Drivers/STM32L0xx_HAL_Driver/Inc/stm32l0xx_ll_rtc.h ****   * @param  WeekDay This parameter can be one of the following values:
1688:Drivers/STM32L0xx_HAL_Driver/Inc/stm32l0xx_ll_rtc.h ****   *         @arg @ref LL_RTC_WEEKDAY_MONDAY
1689:Drivers/STM32L0xx_HAL_Driver/Inc/stm32l0xx_ll_rtc.h ****   *         @arg @ref LL_RTC_WEEKDAY_TUESDAY
1690:Drivers/STM32L0xx_HAL_Driver/Inc/stm32l0xx_ll_rtc.h ****   *         @arg @ref LL_RTC_WEEKDAY_WEDNESDAY
1691:Drivers/STM32L0xx_HAL_Driver/Inc/stm32l0xx_ll_rtc.h ****   *         @arg @ref LL_RTC_WEEKDAY_THURSDAY
1692:Drivers/STM32L0xx_HAL_Driver/Inc/stm32l0xx_ll_rtc.h ****   *         @arg @ref LL_RTC_WEEKDAY_FRIDAY
1693:Drivers/STM32L0xx_HAL_Driver/Inc/stm32l0xx_ll_rtc.h ****   *         @arg @ref LL_RTC_WEEKDAY_SATURDAY
1694:Drivers/STM32L0xx_HAL_Driver/Inc/stm32l0xx_ll_rtc.h ****   *         @arg @ref LL_RTC_WEEKDAY_SUNDAY
1695:Drivers/STM32L0xx_HAL_Driver/Inc/stm32l0xx_ll_rtc.h ****   * @retval None
1696:Drivers/STM32L0xx_HAL_Driver/Inc/stm32l0xx_ll_rtc.h ****   */
1697:Drivers/STM32L0xx_HAL_Driver/Inc/stm32l0xx_ll_rtc.h **** __STATIC_INLINE void LL_RTC_ALMA_SetWeekDay(RTC_TypeDef *RTCx, uint32_t WeekDay)
 348              		.loc 2 1697 22 is_stmt 1 view .LVU98
 349              	.LBB129:
1698:Drivers/STM32L0xx_HAL_Driver/Inc/stm32l0xx_ll_rtc.h **** {
1699:Drivers/STM32L0xx_HAL_Driver/Inc/stm32l0xx_ll_rtc.h ****   MODIFY_REG(RTCx->ALRMAR, RTC_ALRMAR_DU, WeekDay << RTC_ALRMAR_DU_Pos);
 350              		.loc 2 1699 3 view .LVU99
 351 0088 E369     		ldr	r3, [r4, #28]
 352 008a 2F49     		ldr	r1, .L14+8
 353              	.LVL27:
 354              		.loc 2 1699 3 is_stmt 0 view .LVU100
 355 008c 0B40     		ands	r3, r1
 356 008e 1206     		lsls	r2, r2, #24
 357              	.LVL28:
 358              		.loc 2 1699 3 view .LVU101
 359 0090 1343     		orrs	r3, r2
 360 0092 E361     		str	r3, [r4, #28]
 361              	.LVL29:
 362              	.L11:
 363              		.loc 2 1699 3 view .LVU102
 364              	.LBE129:
 365              	.LBE128:
 527:Drivers/STM32L0xx_HAL_Driver/Src/stm32l0xx_ll_rtc.c ****   }
 528:Drivers/STM32L0xx_HAL_Driver/Src/stm32l0xx_ll_rtc.c **** 
 529:Drivers/STM32L0xx_HAL_Driver/Src/stm32l0xx_ll_rtc.c ****   /* Configure the Alarm register */
 530:Drivers/STM32L0xx_HAL_Driver/Src/stm32l0xx_ll_rtc.c ****   if (RTC_Format != LL_RTC_FORMAT_BIN)
 366              		.loc 1 530 3 is_stmt 1 view .LVU103
 367              		.loc 1 530 6 is_stmt 0 view .LVU104
 368 0094 002E     		cmp	r6, #0
 369 0096 1BD0     		beq	.L12
 531:Drivers/STM32L0xx_HAL_Driver/Src/stm32l0xx_ll_rtc.c ****   {
 532:Drivers/STM32L0xx_HAL_Driver/Src/stm32l0xx_ll_rtc.c ****     LL_RTC_ALMA_ConfigTime(RTCx, RTC_AlarmStruct->AlarmTime.TimeFormat, RTC_AlarmStruct->AlarmTime.
 370              		.loc 1 532 5 is_stmt 1 view .LVU105
 371              		.loc 1 532 99 is_stmt 0 view .LVU106
 372 0098 2A79     		ldrb	r2, [r5, #4]
 533:Drivers/STM32L0xx_HAL_Driver/Src/stm32l0xx_ll_rtc.c ****                            RTC_AlarmStruct->AlarmTime.Minutes, RTC_AlarmStruct->AlarmTime.Seconds);
 373              		.loc 1 533 54 view .LVU107
 374 009a 6979     		ldrb	r1, [r5, #5]
 375              		.loc 1 533 90 view .LVU108
 376 009c AB79     		ldrb	r3, [r5, #6]
 377              	.LVL30:
 378              	.LBB130:
 379              	.LBI130:
ARM GAS  C:\Users\Nathan\AppData\Local\Temp\ccAQTZu2.s 			page 47


1700:Drivers/STM32L0xx_HAL_Driver/Inc/stm32l0xx_ll_rtc.h **** }
1701:Drivers/STM32L0xx_HAL_Driver/Inc/stm32l0xx_ll_rtc.h **** 
1702:Drivers/STM32L0xx_HAL_Driver/Inc/stm32l0xx_ll_rtc.h **** /**
1703:Drivers/STM32L0xx_HAL_Driver/Inc/stm32l0xx_ll_rtc.h ****   * @brief  Get ALARM A Weekday
1704:Drivers/STM32L0xx_HAL_Driver/Inc/stm32l0xx_ll_rtc.h ****   * @rmtoll ALRMAR       DU            LL_RTC_ALMA_GetWeekDay
1705:Drivers/STM32L0xx_HAL_Driver/Inc/stm32l0xx_ll_rtc.h ****   * @param  RTCx RTC Instance
1706:Drivers/STM32L0xx_HAL_Driver/Inc/stm32l0xx_ll_rtc.h ****   * @retval Returned value can be one of the following values:
1707:Drivers/STM32L0xx_HAL_Driver/Inc/stm32l0xx_ll_rtc.h ****   *         @arg @ref LL_RTC_WEEKDAY_MONDAY
1708:Drivers/STM32L0xx_HAL_Driver/Inc/stm32l0xx_ll_rtc.h ****   *         @arg @ref LL_RTC_WEEKDAY_TUESDAY
1709:Drivers/STM32L0xx_HAL_Driver/Inc/stm32l0xx_ll_rtc.h ****   *         @arg @ref LL_RTC_WEEKDAY_WEDNESDAY
1710:Drivers/STM32L0xx_HAL_Driver/Inc/stm32l0xx_ll_rtc.h ****   *         @arg @ref LL_RTC_WEEKDAY_THURSDAY
1711:Drivers/STM32L0xx_HAL_Driver/Inc/stm32l0xx_ll_rtc.h ****   *         @arg @ref LL_RTC_WEEKDAY_FRIDAY
1712:Drivers/STM32L0xx_HAL_Driver/Inc/stm32l0xx_ll_rtc.h ****   *         @arg @ref LL_RTC_WEEKDAY_SATURDAY
1713:Drivers/STM32L0xx_HAL_Driver/Inc/stm32l0xx_ll_rtc.h ****   *         @arg @ref LL_RTC_WEEKDAY_SUNDAY
1714:Drivers/STM32L0xx_HAL_Driver/Inc/stm32l0xx_ll_rtc.h ****   */
1715:Drivers/STM32L0xx_HAL_Driver/Inc/stm32l0xx_ll_rtc.h **** __STATIC_INLINE uint32_t LL_RTC_ALMA_GetWeekDay(RTC_TypeDef *RTCx)
1716:Drivers/STM32L0xx_HAL_Driver/Inc/stm32l0xx_ll_rtc.h **** {
1717:Drivers/STM32L0xx_HAL_Driver/Inc/stm32l0xx_ll_rtc.h ****   return (uint32_t)(READ_BIT(RTCx->ALRMAR, RTC_ALRMAR_DU) >> RTC_ALRMAR_DU_Pos);
1718:Drivers/STM32L0xx_HAL_Driver/Inc/stm32l0xx_ll_rtc.h **** }
1719:Drivers/STM32L0xx_HAL_Driver/Inc/stm32l0xx_ll_rtc.h **** 
1720:Drivers/STM32L0xx_HAL_Driver/Inc/stm32l0xx_ll_rtc.h **** /**
1721:Drivers/STM32L0xx_HAL_Driver/Inc/stm32l0xx_ll_rtc.h ****   * @brief  Set Alarm A time format (AM/24-hour or PM notation)
1722:Drivers/STM32L0xx_HAL_Driver/Inc/stm32l0xx_ll_rtc.h ****   * @rmtoll ALRMAR       PM            LL_RTC_ALMA_SetTimeFormat
1723:Drivers/STM32L0xx_HAL_Driver/Inc/stm32l0xx_ll_rtc.h ****   * @param  RTCx RTC Instance
1724:Drivers/STM32L0xx_HAL_Driver/Inc/stm32l0xx_ll_rtc.h ****   * @param  TimeFormat This parameter can be one of the following values:
1725:Drivers/STM32L0xx_HAL_Driver/Inc/stm32l0xx_ll_rtc.h ****   *         @arg @ref LL_RTC_ALMA_TIME_FORMAT_AM
1726:Drivers/STM32L0xx_HAL_Driver/Inc/stm32l0xx_ll_rtc.h ****   *         @arg @ref LL_RTC_ALMA_TIME_FORMAT_PM
1727:Drivers/STM32L0xx_HAL_Driver/Inc/stm32l0xx_ll_rtc.h ****   * @retval None
1728:Drivers/STM32L0xx_HAL_Driver/Inc/stm32l0xx_ll_rtc.h ****   */
1729:Drivers/STM32L0xx_HAL_Driver/Inc/stm32l0xx_ll_rtc.h **** __STATIC_INLINE void LL_RTC_ALMA_SetTimeFormat(RTC_TypeDef *RTCx, uint32_t TimeFormat)
1730:Drivers/STM32L0xx_HAL_Driver/Inc/stm32l0xx_ll_rtc.h **** {
1731:Drivers/STM32L0xx_HAL_Driver/Inc/stm32l0xx_ll_rtc.h ****   MODIFY_REG(RTCx->ALRMAR, RTC_ALRMAR_PM, TimeFormat);
1732:Drivers/STM32L0xx_HAL_Driver/Inc/stm32l0xx_ll_rtc.h **** }
1733:Drivers/STM32L0xx_HAL_Driver/Inc/stm32l0xx_ll_rtc.h **** 
1734:Drivers/STM32L0xx_HAL_Driver/Inc/stm32l0xx_ll_rtc.h **** /**
1735:Drivers/STM32L0xx_HAL_Driver/Inc/stm32l0xx_ll_rtc.h ****   * @brief  Get Alarm A time format (AM or PM notation)
1736:Drivers/STM32L0xx_HAL_Driver/Inc/stm32l0xx_ll_rtc.h ****   * @rmtoll ALRMAR       PM            LL_RTC_ALMA_GetTimeFormat
1737:Drivers/STM32L0xx_HAL_Driver/Inc/stm32l0xx_ll_rtc.h ****   * @param  RTCx RTC Instance
1738:Drivers/STM32L0xx_HAL_Driver/Inc/stm32l0xx_ll_rtc.h ****   * @retval Returned value can be one of the following values:
1739:Drivers/STM32L0xx_HAL_Driver/Inc/stm32l0xx_ll_rtc.h ****   *         @arg @ref LL_RTC_ALMA_TIME_FORMAT_AM
1740:Drivers/STM32L0xx_HAL_Driver/Inc/stm32l0xx_ll_rtc.h ****   *         @arg @ref LL_RTC_ALMA_TIME_FORMAT_PM
1741:Drivers/STM32L0xx_HAL_Driver/Inc/stm32l0xx_ll_rtc.h ****   */
1742:Drivers/STM32L0xx_HAL_Driver/Inc/stm32l0xx_ll_rtc.h **** __STATIC_INLINE uint32_t LL_RTC_ALMA_GetTimeFormat(RTC_TypeDef *RTCx)
1743:Drivers/STM32L0xx_HAL_Driver/Inc/stm32l0xx_ll_rtc.h **** {
1744:Drivers/STM32L0xx_HAL_Driver/Inc/stm32l0xx_ll_rtc.h ****   return (uint32_t)(READ_BIT(RTCx->ALRMAR, RTC_ALRMAR_PM));
1745:Drivers/STM32L0xx_HAL_Driver/Inc/stm32l0xx_ll_rtc.h **** }
1746:Drivers/STM32L0xx_HAL_Driver/Inc/stm32l0xx_ll_rtc.h **** 
1747:Drivers/STM32L0xx_HAL_Driver/Inc/stm32l0xx_ll_rtc.h **** /**
1748:Drivers/STM32L0xx_HAL_Driver/Inc/stm32l0xx_ll_rtc.h ****   * @brief  Set ALARM A Hours in BCD format
1749:Drivers/STM32L0xx_HAL_Driver/Inc/stm32l0xx_ll_rtc.h ****   * @note helper macro __LL_RTC_CONVERT_BIN2BCD is available to convert Hours from binary to BCD fo
1750:Drivers/STM32L0xx_HAL_Driver/Inc/stm32l0xx_ll_rtc.h ****   * @rmtoll ALRMAR       HT            LL_RTC_ALMA_SetHour\n
1751:Drivers/STM32L0xx_HAL_Driver/Inc/stm32l0xx_ll_rtc.h ****   *         ALRMAR       HU            LL_RTC_ALMA_SetHour
1752:Drivers/STM32L0xx_HAL_Driver/Inc/stm32l0xx_ll_rtc.h ****   * @param  RTCx RTC Instance
1753:Drivers/STM32L0xx_HAL_Driver/Inc/stm32l0xx_ll_rtc.h ****   * @param  Hours Value between Min_Data=0x01 and Max_Data=0x12 or between Min_Data=0x00 and Max_Da
1754:Drivers/STM32L0xx_HAL_Driver/Inc/stm32l0xx_ll_rtc.h ****   * @retval None
1755:Drivers/STM32L0xx_HAL_Driver/Inc/stm32l0xx_ll_rtc.h ****   */
1756:Drivers/STM32L0xx_HAL_Driver/Inc/stm32l0xx_ll_rtc.h **** __STATIC_INLINE void LL_RTC_ALMA_SetHour(RTC_TypeDef *RTCx, uint32_t Hours)
ARM GAS  C:\Users\Nathan\AppData\Local\Temp\ccAQTZu2.s 			page 48


1757:Drivers/STM32L0xx_HAL_Driver/Inc/stm32l0xx_ll_rtc.h **** {
1758:Drivers/STM32L0xx_HAL_Driver/Inc/stm32l0xx_ll_rtc.h ****   MODIFY_REG(RTCx->ALRMAR, (RTC_ALRMAR_HT | RTC_ALRMAR_HU),
1759:Drivers/STM32L0xx_HAL_Driver/Inc/stm32l0xx_ll_rtc.h ****              (((Hours & 0xF0U) << (RTC_ALRMAR_HT_Pos - 4U)) | ((Hours & 0x0FU) << RTC_ALRMAR_HU_Pos
1760:Drivers/STM32L0xx_HAL_Driver/Inc/stm32l0xx_ll_rtc.h **** }
1761:Drivers/STM32L0xx_HAL_Driver/Inc/stm32l0xx_ll_rtc.h **** 
1762:Drivers/STM32L0xx_HAL_Driver/Inc/stm32l0xx_ll_rtc.h **** /**
1763:Drivers/STM32L0xx_HAL_Driver/Inc/stm32l0xx_ll_rtc.h ****   * @brief  Get ALARM A Hours in BCD format
1764:Drivers/STM32L0xx_HAL_Driver/Inc/stm32l0xx_ll_rtc.h ****   * @note helper macro __LL_RTC_CONVERT_BCD2BIN is available to convert Hours from BCD to Binary fo
1765:Drivers/STM32L0xx_HAL_Driver/Inc/stm32l0xx_ll_rtc.h ****   * @rmtoll ALRMAR       HT            LL_RTC_ALMA_GetHour\n
1766:Drivers/STM32L0xx_HAL_Driver/Inc/stm32l0xx_ll_rtc.h ****   *         ALRMAR       HU            LL_RTC_ALMA_GetHour
1767:Drivers/STM32L0xx_HAL_Driver/Inc/stm32l0xx_ll_rtc.h ****   * @param  RTCx RTC Instance
1768:Drivers/STM32L0xx_HAL_Driver/Inc/stm32l0xx_ll_rtc.h ****   * @retval Value between Min_Data=0x01 and Max_Data=0x12 or between Min_Data=0x00 and Max_Data=0x2
1769:Drivers/STM32L0xx_HAL_Driver/Inc/stm32l0xx_ll_rtc.h ****   */
1770:Drivers/STM32L0xx_HAL_Driver/Inc/stm32l0xx_ll_rtc.h **** __STATIC_INLINE uint32_t LL_RTC_ALMA_GetHour(RTC_TypeDef *RTCx)
1771:Drivers/STM32L0xx_HAL_Driver/Inc/stm32l0xx_ll_rtc.h **** {
1772:Drivers/STM32L0xx_HAL_Driver/Inc/stm32l0xx_ll_rtc.h ****   return (uint32_t)((READ_BIT(RTCx->ALRMAR, (RTC_ALRMAR_HT | RTC_ALRMAR_HU))) >> RTC_ALRMAR_HU_Pos)
1773:Drivers/STM32L0xx_HAL_Driver/Inc/stm32l0xx_ll_rtc.h **** }
